BL51 BANKED LINKER/LOCATER V6.22.2.0                                                    02/22/2021  15:08:13  PAGE 1


BL51 BANKED LINKER/LOCATER V6.22.2.0, INVOKED BY:
C:\KEIL_V5\C51\BIN\BL51.EXE .\OutPut\main.obj, .\OutPut\task1.obj, .\OutPut\task2.obj, .\OutPut\task3.obj, .\OutPut\os_c
>> ore.obj, .\OutPut\os_flag.obj, .\OutPut\os_mbox.obj, .\OutPut\os_mem.obj, .\OutPut\os_mutex.obj, .\OutPut\os_q.obj, .
>> \OutPut\os_sem.obj, .\OutPut\os_task.obj, .\OutPut\os_time.obj, .\OutPut\os_tmr.obj, .\OutPut\STARTUP.obj, .\OutPut\o
>> s_cpu_c.obj, .\OutPut\os_cpu_a.obj TO .\OutPut\uCosii_51 PRINT (.\OutPut\uCosii_51.m51) RAMSIZE (256) CODE (0X0000-0X
>> 7FFF) XDATA (0X0000-0X03FF)


MEMORY MODEL: LARGE WITH FLOATING POINT ARITHMETIC


INPUT MODULES INCLUDED:
  .\OutPut\main.obj (MAIN)
  .\OutPut\task1.obj (TASK1)
  .\OutPut\task2.obj (TASK2)
  .\OutPut\task3.obj (TASK3)
  .\OutPut\os_core.obj (OS_CORE)
  .\OutPut\os_flag.obj (OS_FLAG)
  .\OutPut\os_mbox.obj (OS_MBOX)
  .\OutPut\os_mem.obj (OS_MEM)
  .\OutPut\os_mutex.obj (OS_MUTEX)
  .\OutPut\os_q.obj (OS_Q)
  .\OutPut\os_sem.obj (OS_SEM)
  .\OutPut\os_task.obj (OS_TASK)
  .\OutPut\os_time.obj (OS_TIME)
  .\OutPut\os_tmr.obj (OS_TMR)
  .\OutPut\STARTUP.obj (?C_STARTUP)
  .\OutPut\os_cpu_c.obj (OS_CPU_C)
  .\OutPut\os_cpu_a.obj (OS_CPU_A)
  C:\KEIL_V5\C51\LIB\C51FPL.LIB (?C?FPADD)
  C:\KEIL_V5\C51\LIB\C51FPL.LIB (?C?FPDIV)
  C:\KEIL_V5\C51\LIB\C51FPL.LIB (?C?FCAST)
  C:\KEIL_V5\C51\LIB\C51FPL.LIB (?C?CASTF)
  C:\KEIL_V5\C51\LIB\C51FPL.LIB (?C?FPGETOPN)
  C:\KEIL_V5\C51\LIB\C51L.LIB (?C_INIT)
  C:\KEIL_V5\C51\LIB\C51L.LIB (?C?CLDPTR)
  C:\KEIL_V5\C51\LIB\C51L.LIB (?C?CLDOPTR)
  C:\KEIL_V5\C51\LIB\C51L.LIB (?C?CSTPTR)
  C:\KEIL_V5\C51\LIB\C51L.LIB (?C?CSTOPTR)
  C:\KEIL_V5\C51\LIB\C51L.LIB (?C?IMUL)
  C:\KEIL_V5\C51\LIB\C51L.LIB (?C?UIDIV)
  C:\KEIL_V5\C51\LIB\C51L.LIB (?C?SIDIV)
  C:\KEIL_V5\C51\LIB\C51L.LIB (?C?IILDX)
  C:\KEIL_V5\C51\LIB\C51L.LIB (?C?ILDIX)
  C:\KEIL_V5\C51\LIB\C51L.LIB (?C?ILDOPTR)
  C:\KEIL_V5\C51\LIB\C51L.LIB (?C?ISTOPTR)
  C:\KEIL_V5\C51\LIB\C51L.LIB (?C?LMUL)
  C:\KEIL_V5\C51\LIB\C51L.LIB (?C?ULDIV)
  C:\KEIL_V5\C51\LIB\C51L.LIB (?C?LNEG)
  C:\KEIL_V5\C51\LIB\C51L.LIB (?C?ULCMP)
  C:\KEIL_V5\C51\LIB\C51L.LIB (?C?LLDOPTR)
  C:\KEIL_V5\C51\LIB\C51L.LIB (?C?LSTOPTR)
  C:\KEIL_V5\C51\LIB\C51L.LIB (?C?LSTXDATA)
  C:\KEIL_V5\C51\LIB\C51L.LIB (?C?LSTKXDATA)
  C:\KEIL_V5\C51\LIB\C51L.LIB (?C?LSTKOPTR)
  C:\KEIL_V5\C51\LIB\C51L.LIB (?C?PSTPTR)
  C:\KEIL_V5\C51\LIB\C51L.LIB (?C?PLDOPTR)
  C:\KEIL_V5\C51\LIB\C51L.LIB (?C?PSTOPTR)
BL51 BANKED LINKER/LOCATER V6.22.2.0                                                  02/22/2021  15:08:13  PAGE 2


  C:\KEIL_V5\C51\LIB\C51L.LIB (?C_XBP)
  C:\KEIL_V5\C51\LIB\C51L.LIB (?C?ADDXBP)
  C:\KEIL_V5\C51\LIB\C51L.LIB (?C?XBPOFF)
  C:\KEIL_V5\C51\LIB\C51L.LIB (?C?LIMUL)
  C:\KEIL_V5\C51\LIB\C51L.LIB (?C?LLDIDATA)
  C:\KEIL_V5\C51\LIB\C51L.LIB (?C?LLDXDATA)
  C:\KEIL_V5\C51\LIB\C51L.LIB (?C?LLDPDATA)
  C:\KEIL_V5\C51\LIB\C51L.LIB (?C?LLDCODE)
  C:\KEIL_V5\C51\LIB\C51L.LIB (?C?LSTIDATA)
  C:\KEIL_V5\C51\LIB\C51L.LIB (?C?LSTPDATA)
  C:\KEIL_V5\C51\LIB\C51L.LIB (?C?LSTKIDATA)
  C:\KEIL_V5\C51\LIB\C51L.LIB (?C?LSTKPDATA)
  C:\KEIL_V5\C51\LIB\C51L.LIB (?C?PLDIDATA)
  C:\KEIL_V5\C51\LIB\C51L.LIB (?C?PSTIDATA)
  C:\KEIL_V5\C51\LIB\C51L.LIB (?C?PLDXDATA)
  C:\KEIL_V5\C51\LIB\C51L.LIB (?C?PSTXDATA)
  C:\KEIL_V5\C51\LIB\C51L.LIB (?C?PLDPDATA)
  C:\KEIL_V5\C51\LIB\C51L.LIB (?C?PSTPDATA)
  C:\KEIL_V5\C51\LIB\C51L.LIB (?C?PLDCODE)


LINK MAP OF MODULE:  .\OutPut\uCosii_51 (MAIN)


            TYPE    BASE      LENGTH    RELOCATION   SEGMENT NAME
            -----------------------------------------------------

            * * * * * * *   D A T A   M E M O R Y   * * * * * * *
            REG     0000H     0008H     ABSOLUTE     "REG BANK 0"
            DATA    0008H     0002H     UNIT         ?C?LIB_DATA
            IDATA   000AH     0009H     UNIT         ?ID?OS_CORE
                    0013H     000DH                  *** GAP ***
            BIT     0020H.0   0000H.3   UNIT         ?BI?TASK2
            BIT     0020H.3   0000H.2   UNIT         ?BI?TASK3
            BIT     0020H.5   0000H.1   UNIT         ?BI?TASK1
            BIT     0020H.6   0000H.1   UNIT         _BIT_GROUP_
                    0020H.7   0000H.1                *** GAP ***
            IDATA   0021H     0041H     UNIT         ?STACK

            * * * * * * *  X D A T A   M E M O R Y  * * * * * * *
            XDATA   0000H     01A2H     UNIT         ?XD?OS_CORE
            XDATA   01A2H     0093H     UNIT         ?XD?MAIN
            XDATA   0235H     007CH     UNIT         ?XD?TASK2
            XDATA   02B1H     0046H     UNIT         ?XD?TASK1
            XDATA   02F7H     003AH     UNIT         ?XD?TASK3
            XDATA   0331H     0008H     UNIT         _XDATA_GROUP_
                    0339H     FB47H                  *** GAP ***
            XDATA   FE80H     0001H     ABSOLUTE     
                    FE81H     0004H                  *** GAP ***
            XDATA   FE85H     0001H     ABSOLUTE     
                    FE86H     0002H                  *** GAP ***
            XDATA   FE88H     0001H     ABSOLUTE     
            XDATA   FE89H     0001H     ABSOLUTE     
            XDATA   FE8AH     0001H     ABSOLUTE     
                    FE8BH     0006H                  *** GAP ***
            XDATA   FE91H     0001H     ABSOLUTE     
            XDATA   FE92H     0001H     ABSOLUTE     
BL51 BANKED LINKER/LOCATER V6.22.2.0                                                  02/22/2021  15:08:13  PAGE 3


            XDATA   FE93H     0001H     ABSOLUTE     
            XDATA   FE94H     0001H     ABSOLUTE     
            XDATA   FE95H     0001H     ABSOLUTE     
                    FE96H     0005H                  *** GAP ***
            XDATA   FE9BH     0001H     ABSOLUTE     
                    FE9CH     0004H                  *** GAP ***
            XDATA   FEA0H     0001H     ABSOLUTE     
                    FEA1H     0001H                  *** GAP ***
            XDATA   FEA2H     0001H     ABSOLUTE     
                    FEA3H     0001H                  *** GAP ***
            XDATA   FEA4H     0001H     ABSOLUTE     
            XDATA   FEA5H     0001H     ABSOLUTE     
                    FEA6H     0001H                  *** GAP ***
            XDATA   FEA7H     0001H     ABSOLUTE     
                    FEA8H     0002H                  *** GAP ***
            XDATA   FEAAH     0001H     ABSOLUTE     
                    FEABH     0005H                  *** GAP ***
            XDATA   FEB0H     0001H     ABSOLUTE     
            XDATA   FEB1H     0001H     ABSOLUTE     
            XDATA   FEB2H     0001H     ABSOLUTE     
            XDATA   FEB3H     0001H     ABSOLUTE     
            XDATA   FEB4H     0001H     ABSOLUTE     
                    FEB5H     0003H                  *** GAP ***
            XDATA   FEB8H     0001H     ABSOLUTE     
            XDATA   FEB9H     0001H     ABSOLUTE     
            XDATA   FEBAH     0001H     ABSOLUTE     
                    FEBBH     0001H                  *** GAP ***
            XDATA   FEBCH     0001H     ABSOLUTE     
            XDATA   FEBDH     0001H     ABSOLUTE     
            XDATA   FEBEH     0001H     ABSOLUTE     
                    FEBFH     0001H                  *** GAP ***
            XDATA   FEC0H     0001H     ABSOLUTE     
                    FEC1H     000FH                  *** GAP ***
            XDATA   FED0H     0001H     ABSOLUTE     
            XDATA   FED1H     0001H     ABSOLUTE     
            XDATA   FED2H     0001H     ABSOLUTE     
            XDATA   FED3H     0001H     ABSOLUTE     
                    FED4H     000CH                  *** GAP ***
            XDATA   FEE0H     0002H     ABSOLUTE     
            XDATA   FEE2H     0002H     ABSOLUTE     
            XDATA   FEE4H     0002H     ABSOLUTE     
            XDATA   FEE6H     0002H     ABSOLUTE     
            XDATA   FEE8H     0002H     ABSOLUTE     
            XDATA   FEEAH     0002H     ABSOLUTE     
            XDATA   FEECH     0002H     ABSOLUTE     
            XDATA   FEEEH     0002H     ABSOLUTE     
                    FEF0H     0010H                  *** GAP ***
            XDATA   FF00H     0001H     ABSOLUTE     
            XDATA   FF01H     0001H     ABSOLUTE     
            XDATA   FF02H     0001H     ABSOLUTE     
            XDATA   FF03H     0001H     ABSOLUTE     
            XDATA   FF04H     0001H     ABSOLUTE     
            XDATA   FF05H     0001H     ABSOLUTE     
            XDATA   FF06H     0001H     ABSOLUTE     
            XDATA   FF07H     0001H     ABSOLUTE     
            XDATA   FF08H     0001H     ABSOLUTE     
            XDATA   FF09H     0001H     ABSOLUTE     
BL51 BANKED LINKER/LOCATER V6.22.2.0                                                  02/22/2021  15:08:13  PAGE 4


            XDATA   FF0AH     0001H     ABSOLUTE     
            XDATA   FF0BH     0001H     ABSOLUTE     
            XDATA   FF0CH     0001H     ABSOLUTE     
            XDATA   FF0DH     0001H     ABSOLUTE     
            XDATA   FF0EH     0001H     ABSOLUTE     
            XDATA   FF0FH     0001H     ABSOLUTE     
            XDATA   FF10H     0001H     ABSOLUTE     
            XDATA   FF11H     0001H     ABSOLUTE     
            XDATA   FF12H     0001H     ABSOLUTE     
            XDATA   FF13H     0001H     ABSOLUTE     
            XDATA   FF14H     0001H     ABSOLUTE     
            XDATA   FF15H     0001H     ABSOLUTE     
            XDATA   FF16H     0001H     ABSOLUTE     
            XDATA   FF17H     0001H     ABSOLUTE     
            XDATA   FF18H     0001H     ABSOLUTE     
            XDATA   FF19H     0001H     ABSOLUTE     
            XDATA   FF1AH     0001H     ABSOLUTE     
            XDATA   FF1BH     0001H     ABSOLUTE     
            XDATA   FF1CH     0001H     ABSOLUTE     
            XDATA   FF1DH     0001H     ABSOLUTE     
                    FF1EH     0022H                  *** GAP ***
            XDATA   FF40H     0001H     ABSOLUTE     
            XDATA   FF41H     0001H     ABSOLUTE     
            XDATA   FF42H     0001H     ABSOLUTE     
                    FF43H     001DH                  *** GAP ***
            XDATA   FF60H     0001H     ABSOLUTE     
            XDATA   FF61H     0001H     ABSOLUTE     
            XDATA   FF62H     0001H     ABSOLUTE     
            XDATA   FF63H     0001H     ABSOLUTE     
                    FF64H     0004H                  *** GAP ***
            XDATA   FF68H     0001H     ABSOLUTE     
            XDATA   FF69H     0001H     ABSOLUTE     
            XDATA   FF6AH     0001H     ABSOLUTE     
            XDATA   FF6BH     0001H     ABSOLUTE     
                    FF6CH     0014H                  *** GAP ***
            XDATA   FF80H     0001H     ABSOLUTE     
            XDATA   FF81H     0001H     ABSOLUTE     
                    FF82H     0001H                  *** GAP ***
            XDATA   FF83H     0001H     ABSOLUTE     
            XDATA   FF84H     0001H     ABSOLUTE     
            XDATA   FF85H     0001H     ABSOLUTE     
                    FF86H     0009H                  *** GAP ***
            XDATA   FF8FH     0001H     ABSOLUTE     
            XDATA   FF90H     0001H     ABSOLUTE     
            XDATA   FF91H     0001H     ABSOLUTE     
                    FF92H     0002H                  *** GAP ***
            XDATA   FF94H     0001H     ABSOLUTE     
            XDATA   FF95H     0001H     ABSOLUTE     
                    FF96H     0002H                  *** GAP ***
            XDATA   FF98H     0001H     ABSOLUTE     
            XDATA   FF99H     0001H     ABSOLUTE     
                    FF9AH     0002H                  *** GAP ***
            XDATA   FF9CH     0001H     ABSOLUTE     
                    FF9DH     0003H                  *** GAP ***
            XDATA   FFA0H     0001H     ABSOLUTE     
            XDATA   FFA1H     0001H     ABSOLUTE     
            XDATA   FFA2H     0001H     ABSOLUTE     
BL51 BANKED LINKER/LOCATER V6.22.2.0                                                  02/22/2021  15:08:13  PAGE 5


            XDATA   FFA3H     0001H     ABSOLUTE     
            XDATA   FFA4H     0001H     ABSOLUTE     
            XDATA   FFA5H     0001H     ABSOLUTE     
            XDATA   FFA6H     0001H     ABSOLUTE     
            XDATA   FFA7H     0001H     ABSOLUTE     
            XDATA   FFA8H     0001H     ABSOLUTE     
            XDATA   FFA9H     0001H     ABSOLUTE     

            * * * * * * *   C O D E   M E M O R Y   * * * * * * *
            CODE    0000H     0003H     ABSOLUTE     
            CODE    0003H     0001H     UNIT         ?PR?_?OS_INITEVENTLIST?OS_CORE
            CODE    0004H     0001H     UNIT         ?PR?_?OSINITHOOKBEGIN?OS_CPU_C
            CODE    0005H     0001H     UNIT         ?PR?_?OSINITHOOKEND?OS_CPU_C
            CODE    0006H     0001H     UNIT         ?PR?_?OSTASKSWHOOK?OS_CPU_C
            CODE    0007H     0001H     UNIT         ?PR?_?OSTIMETICKHOOK?OS_CPU_C
            CODE    0008H     0001H     UNIT         ?PR?_?OSTASKIDLEHOOK?OS_CPU_C
                    0009H     0002H                  *** GAP ***
            CODE    000BH     0003H     ABSOLUTE     
            CODE    000EH     0015H     UNIT         ?PR?_?OSINIT?OS_CORE
            CODE    0023H     0003H     ABSOLUTE     
            CODE    0026H     0052H     UNIT         ?PR?OSSTARTHIGHRDY?OS_CPU_A
                    0078H     0003H                  *** GAP ***
            CODE    007BH     0003H     ABSOLUTE     
            CODE    007EH     000BH     UNIT         ?PR?_DELAY_2US?OS_CPU_C
                    0089H     0002H                  *** GAP ***
            CODE    008BH     0003H     ABSOLUTE     
                    008EH     0005H                  *** GAP ***
            CODE    0093H     0003H     ABSOLUTE     
            CODE    0096H     1028H     UNIT         ?PR?F3_RUN?TASK3
            CODE    10BEH     07E6H     UNIT         ?C?LIB_CODE
            CODE    18A4H     05D4H     UNIT         ?PR?UART1_DATA?TASK1
            CODE    1E78H     0467H     UNIT         ?PR?F2_ZJ_MODE?TASK2
            CODE    22DFH     0304H     UNIT         ?C_INITSEG
            CODE    25E3H     0270H     UNIT         ?PR?TASK3
            CODE    2853H     0230H     UNIT         ?PR?TASK2
            CODE    2A83H     0214H     UNIT         ?PR?F2_ERROR?TASK2
            CODE    2C97H     01F0H     UNIT         ?PR?F2_BAT?TASK2
            CODE    2E87H     01C5H     UNIT         ?PR?_?OS_TCBINIT?OS_CORE
            CODE    304CH     01C4H     UNIT         ?PR?F2_TOUCH?TASK2
            CODE    3210H     018DH     UNIT         ?PR?_ADVANCE_L?TASK3
            CODE    339DH     0183H     UNIT         ?PR?_ADVANCE_R?TASK3
            CODE    3520H     0165H     UNIT         ?PR?F2_LEDSHOW?TASK2
            CODE    3685H     015AH     UNIT         ?PR?_?INITHARDWARE?OS_CPU_C
            CODE    37DFH     0153H     UNIT         ?PR?_?TASK2?TASK2
            CODE    3932H     0145H     UNIT         ?PR?TASK1
            CODE    3A77H     0128H     UNIT         ?PR?F2_ERROR_BUZZER?TASK2
            CODE    3B9FH     0121H     UNIT         ?PR?F2_STANDBY?TASK2
            CODE    3CC0H     00F8H     UNIT         ?PR?_?OSTASKSUSPEND?OS_TASK
            CODE    3DB8H     00EFH     UNIT         ?PR?F1_FAN_OPEN?TASK1
            CODE    3EA7H     00E6H     UNIT         ?PR?UART1_RPT?TASK1
            CODE    3F8DH     00E6H     UNIT         ?PR?_BUBBLESORT?TASK2
            CODE    4073H     00E3H     UNIT         ?PR?F3_RUN_ZJ?TASK3
            CODE    4156H     00DBH     UNIT         ?PR?F3_RUN_WIFI?TASK3
            CODE    4231H     00D5H     UNIT         ?PR?OS_CORE
            CODE    4306H     00D5H     UNIT         ?PR?_?OSTASKCREATE?OS_TASK
            CODE    43DBH     00D0H     UNIT         ?PR?_?OSTIMETICK?OS_CORE
            CODE    44ABH     00D0H     UNIT         ?PR?_?OSTASKSTKINIT?OS_CPU_C
BL51 BANKED LINKER/LOCATER V6.22.2.0                                                  02/22/2021  15:08:13  PAGE 6


            CODE    457BH     00CDH     UNIT         ?PR?_?OSTASKRESUME?OS_TASK
            CODE    4648H     00C6H     UNIT         ?PR?_?OSTIMEDLYHMSM?OS_TIME
            CODE    470EH     00C1H     UNIT         ?PR?_?OS_INITTCBLIST?OS_CORE
            CODE    47CFH     00B4H     UNIT         ?PR?_F2_DJ_MODE?TASK2
            CODE    4883H     00AEH     UNIT         ?CO?TASK1
            CODE    4931H     00AEH     UNIT         ?PR?F2_POWER?TASK2
            CODE    49DFH     00A7H     UNIT         ?PR?_?OSTIMEDLY?OS_TIME
            CODE    4A86H     00A5H     UNIT         ?PR?_F2_GET_ADC?TASK2
            CODE    4B2BH     0092H     UNIT         ?C_C51STARTUP
            CODE    4BBDH     0088H     UNIT         ?PR?OS_TASK
            CODE    4C45H     0083H     UNIT         ?PR?_?TASK1?TASK1
            CODE    4CC8H     0080H     UNIT         ?PR?P2INT_RPT?TASK3
            CODE    4D48H     006EH     UNIT         ?PR?F3_RUN_FIRST?TASK3
            CODE    4DB6H     006DH     UNIT         ?PR?OS_CPU_C
            CODE    4E23H     006CH     UNIT         ?PR?INT8_17_RPT?TASK3
            CODE    4E8FH     0067H     UNIT         ?PR?_BACK?TASK3
            CODE    4EF6H     0066H     UNIT         ?PR?OSCTXSW?OS_CPU_A
            CODE    4F5CH     0051H     UNIT         ?PR?MAIN?MAIN
            CODE    4FADH     0050H     UNIT         ?PR?_?TASK3?TASK3
            CODE    4FFDH     0044H     UNIT         ?PR?OSTICKISRUSER?OS_CPU_C
            CODE    5041H     0043H     UNIT         ?PR?_?OS_INITRDYLIST?OS_CORE
            CODE    5084H     0043H     UNIT         ?PR?_?OS_MEMCLR?OS_CORE
            CODE    50C7H     003EH     UNIT         ?PR?_?OSINTEXIT?OS_CORE
            CODE    5105H     003EH     UNIT         ?PR?OS_TIME
            CODE    5143H     0035H     UNIT         ?PR?_?OS_TASKIDLE?OS_CORE
            CODE    5178H     0032H     UNIT         ?PR?F3_STOP?TASK3
            CODE    51AAH     0030H     UNIT         ?PR?F1_TIMING_CASE?TASK1
            CODE    51DAH     0029H     UNIT         ?PR?_?OS_SCHEDNEW?OS_CORE
            CODE    5203H     0028H     UNIT         ?PR?_?OS_SCHED?OS_CORE
            CODE    522BH     0025H     UNIT         ?PR?MAIN
            CODE    5250H     0025H     UNIT         ?PR?_?OS_INITMISC?OS_CORE
            CODE    5275H     0021H     UNIT         ?PR?INITIALIZE_PWM?TASK3
            CODE    5296H     0021H     UNIT         ?PR?_?OSSTART?OS_CORE
            CODE    52B7H     001EH     UNIT         ?PR?RESET_PWM?TASK3
            CODE    52D5H     001EH     UNIT         ?PR?_?OS_INITTASKIDLE?OS_CORE
            CODE    52F3H     001AH     UNIT         ?PR?F2_BUZZER?TASK2
            CODE    530DH     0019H     UNIT         ?PR?ADC_RPT?TASK2
            CODE    5326H     0018H     UNIT         ?PR?_F2_GRLED?TASK2
            CODE    533EH     0017H     UNIT         ?PR?_?OSINTENTER?OS_CORE
            CODE    5355H     000AH     UNIT         ?PR?OSINTCTXSW?OS_CPU_A
            CODE    535FH     0009H     UNIT         ?PR?USERTICKTIMER?OS_CPU_C
            CODE    5368H     0009H     UNIT         ?PR?_?OSTASKCREATEHOOK?OS_CPU_C
            CODE    5371H     0009H     UNIT         ?PR?_?OSTCBINITHOOK?OS_CPU_C



OVERLAY MAP OF MODULE:   .\OutPut\uCosii_51 (MAIN)


SEGMENT                                    BIT_GROUP          XDATA_GROUP
  +--> CALLED SEGMENT                   START    LENGTH     START    LENGTH
---------------------------------------------------------------------------
?PR?UART1_RPT?TASK1                     -----    -----      -----    -----
  +--> ?PR?TASK1

?PR?TASK1                               -----    -----      -----    -----
  +--> ?CO?TASK1
BL51 BANKED LINKER/LOCATER V6.22.2.0                                                  02/22/2021  15:08:13  PAGE 7



*** NEW ROOT ***************************************************

?PR?INT8_17_RPT?TASK3                   -----    -----      -----    -----
  +--> ?PR?TASK3
  +--> ?PR?RESET_PWM?TASK3

?PR?RESET_PWM?TASK3                     -----    -----      -----    -----
  +--> ?PR?TASK3

*** NEW ROOT ***************************************************

?PR?P2INT_RPT?TASK3                     -----    -----      -----    -----
  +--> ?PR?TASK3
  +--> ?PR?RESET_PWM?TASK3

*** NEW ROOT ***************************************************

?C_C51STARTUP                           -----    -----      -----    -----
  +--> ?PR?MAIN?MAIN
  +--> ?C_INITSEG

?PR?MAIN?MAIN                           -----    -----      -----    -----
  +--> ?PR?_?OSINIT?OS_CORE
  +--> ?PR?_?INITHARDWARE?OS_CPU_C
  +--> ?PR?MAIN
  +--> ?PR?_?TASK1?TASK1
  +--> ?PR?_?TASK2?TASK2
  +--> ?PR?_?TASK3?TASK3
  +--> ?PR?_?OSTASKCREATE?OS_TASK
  +--> ?PR?_?OSSTART?OS_CORE

?PR?_?OSINIT?OS_CORE                    -----    -----      -----    -----
  +--> ?PR?_?OSINITHOOKBEGIN?OS_CPU_C
  +--> ?PR?_?OS_INITMISC?OS_CORE
  +--> ?PR?_?OS_INITRDYLIST?OS_CORE
  +--> ?PR?_?OS_INITTCBLIST?OS_CORE
  +--> ?PR?_?OS_INITEVENTLIST?OS_CORE
  +--> ?PR?_?OS_INITTASKIDLE?OS_CORE
  +--> ?PR?_?OSINITHOOKEND?OS_CPU_C

?PR?_?OS_INITRDYLIST?OS_CORE            -----    -----      -----    -----
  +--> ?PR?OS_CORE

?PR?_?OS_INITTCBLIST?OS_CORE            -----    -----      -----    -----
  +--> ?PR?_?OS_MEMCLR?OS_CORE
  +--> ?PR?OS_CORE

?PR?_?OS_MEMCLR?OS_CORE                 -----    -----      -----    -----
  +--> ?PR?OS_CORE

?PR?_?OS_INITTASKIDLE?OS_CORE           -----    -----      -----    -----
  +--> ?PR?OS_CORE
  +--> ?PR?_?OS_TASKIDLE?OS_CORE
  +--> ?PR?_?OSTASKCREATE?OS_TASK

?PR?_?OS_TASKIDLE?OS_CORE               -----    -----      -----    -----
BL51 BANKED LINKER/LOCATER V6.22.2.0                                                  02/22/2021  15:08:13  PAGE 8


  +--> ?PR?OS_CORE
  +--> ?PR?_?OSTASKIDLEHOOK?OS_CPU_C

?PR?_?OSTASKCREATE?OS_TASK              -----    -----      -----    -----
  +--> ?PR?OS_TASK
  +--> ?PR?_?OSTASKSTKINIT?OS_CPU_C
  +--> ?PR?_?OS_TCBINIT?OS_CORE
  +--> ?PR?_?OS_SCHED?OS_CORE

?PR?_?OSTASKSTKINIT?OS_CPU_C            -----    -----      -----    -----
  +--> ?PR?OS_CPU_C

?PR?_?OS_TCBINIT?OS_CORE                -----    -----      -----    -----
  +--> ?PR?OS_CORE
  +--> ?PR?_?OSTCBINITHOOK?OS_CPU_C
  +--> ?PR?_?OSTASKCREATEHOOK?OS_CPU_C

?PR?_?OSTCBINITHOOK?OS_CPU_C            -----    -----      -----    -----
  +--> ?PR?OS_CPU_C

?PR?_?OSTASKCREATEHOOK?OS_CPU_C         -----    -----      -----    -----
  +--> ?PR?OS_CPU_C

?PR?_?OS_SCHED?OS_CORE                  -----    -----      -----    -----
  +--> ?PR?_?OS_SCHEDNEW?OS_CORE
  +--> ?PR?OS_CORE
  +--> ?PR?OSCTXSW?OS_CPU_A

?PR?_?OS_SCHEDNEW?OS_CORE               -----    -----      -----    -----
  +--> ?PR?OS_CORE

?PR?OSCTXSW?OS_CPU_A                    -----    -----      -----    -----
  +--> ?PR?_?OSTASKSWHOOK?OS_CPU_C
  +--> ?PR?OSSTARTHIGHRDY?OS_CPU_A

?PR?OSSTARTHIGHRDY?OS_CPU_A             -----    -----      -----    -----
  +--> ?PR?_?OSTASKSWHOOK?OS_CPU_C

?PR?_?INITHARDWARE?OS_CPU_C             -----    -----      -----    -----
  +--> ?PR?_DELAY_2US?OS_CPU_C

?PR?_?TASK1?TASK1                       -----    -----      -----    -----
  +--> ?PR?_?OSTIMEDLY?OS_TIME
  +--> ?PR?UART1_DATA?TASK1
  +--> ?PR?F1_TIMING_CASE?TASK1
  +--> ?PR?F1_FAN_OPEN?TASK1

?PR?_?OSTIMEDLY?OS_TIME                 -----    -----      -----    -----
  +--> ?PR?OS_TIME
  +--> ?PR?_?OS_SCHED?OS_CORE

?PR?UART1_DATA?TASK1                    -----    -----      -----    -----
  +--> ?PR?TASK1
  +--> ?CO?TASK1
  +--> ?PR?RESET_PWM?TASK3

?PR?F1_TIMING_CASE?TASK1                -----    -----      -----    -----
BL51 BANKED LINKER/LOCATER V6.22.2.0                                                  02/22/2021  15:08:13  PAGE 9


  +--> ?PR?TASK1

?PR?F1_FAN_OPEN?TASK1                   -----    -----      -----    -----
  +--> ?PR?TASK1

?PR?_?TASK2?TASK2                       -----    -----      -----    -----
  +--> ?PR?_?OSTIMEDLY?OS_TIME
  +--> ?PR?F2_LEDSHOW?TASK2
  +--> ?PR?F2_BUZZER?TASK2
  +--> ?PR?F2_TOUCH?TASK2
  +--> ?PR?F2_STANDBY?TASK2
  +--> ?PR?F2_ZJ_MODE?TASK2
  +--> ?PR?TASK2
  +--> ?PR?_F2_GET_ADC?TASK2
  +--> ?PR?F2_ERROR?TASK2
  +--> ?PR?F2_ERROR_BUZZER?TASK2
  +--> ?PR?F2_POWER?TASK2
  +--> ?PR?F2_BAT?TASK2
  +--> ?PR?_F2_DJ_MODE?TASK2

?PR?F2_LEDSHOW?TASK2                    -----    -----      -----    -----
  +--> ?PR?_F2_GRLED?TASK2
  +--> ?PR?TASK2

?PR?F2_TOUCH?TASK2                      -----    -----      -----    -----
  +--> ?PR?TASK2

?PR?F2_STANDBY?TASK2                    -----    -----      -----    -----
  +--> ?PR?TASK2

?PR?F2_ZJ_MODE?TASK2                    -----    -----      -----    -----
  +--> ?PR?TASK2
  +--> ?PR?_F2_GRLED?TASK2

?PR?F2_ERROR?TASK2                      -----    -----      -----    -----
  +--> ?PR?TASK2

?PR?F2_ERROR_BUZZER?TASK2               -----    -----      -----    -----
  +--> ?PR?TASK2

?PR?F2_POWER?TASK2                      -----    -----      -----    -----
  +--> ?PR?TASK2

?PR?F2_BAT?TASK2                        -----    -----      -----    -----
  +--> ?PR?TASK2
  +--> ?PR?_BUBBLESORT?TASK2

?PR?_BUBBLESORT?TASK2                   -----    -----      0331H    0006H
  +--> ?PR?TASK2

?PR?_F2_DJ_MODE?TASK2                   0020H.6  0000H.1    -----    -----
  +--> ?PR?TASK2

?PR?_?TASK3?TASK3                       -----    -----      -----    -----
  +--> ?PR?INITIALIZE_PWM?TASK3
  +--> ?PR?_?OSTIMEDLY?OS_TIME
  +--> ?PR?F3_RUN_FIRST?TASK3
BL51 BANKED LINKER/LOCATER V6.22.2.0                                                  02/22/2021  15:08:13  PAGE 10


  +--> ?PR?F3_STOP?TASK3
  +--> ?PR?F3_RUN?TASK3
  +--> ?PR?F3_RUN_ZJ?TASK3
  +--> ?PR?F3_RUN_WIFI?TASK3

?PR?INITIALIZE_PWM?TASK3                -----    -----      -----    -----
  +--> ?PR?TASK3

?PR?F3_RUN_FIRST?TASK3                  -----    -----      -----    -----
  +--> ?PR?TASK3

?PR?F3_STOP?TASK3                       -----    -----      -----    -----
  +--> ?PR?TASK3
  +--> ?PR?RESET_PWM?TASK3

?PR?F3_RUN?TASK3                        -----    -----      -----    -----
  +--> ?PR?_?OSTIMEDLY?OS_TIME
  +--> ?PR?TASK3
  +--> ?PR?_ADVANCE_L?TASK3
  +--> ?PR?_ADVANCE_R?TASK3
  +--> ?PR?RESET_PWM?TASK3
  +--> ?PR?_BACK?TASK3

?PR?_ADVANCE_L?TASK3                    -----    -----      0335H    0004H
  +--> ?PR?TASK3

?PR?_ADVANCE_R?TASK3                    -----    -----      0335H    0004H
  +--> ?PR?TASK3

?PR?_BACK?TASK3                         -----    -----      0331H    0004H
  +--> ?PR?TASK3
  +--> ?PR?RESET_PWM?TASK3
  +--> ?PR?_ADVANCE_L?TASK3
  +--> ?PR?_ADVANCE_R?TASK3

?PR?F3_RUN_ZJ?TASK3                     -----    -----      -----    -----
  +--> ?PR?TASK3
  +--> ?PR?_ADVANCE_L?TASK3
  +--> ?PR?_ADVANCE_R?TASK3
  +--> ?PR?RESET_PWM?TASK3

?PR?F3_RUN_WIFI?TASK3                   -----    -----      -----    -----
  +--> ?PR?TASK3
  +--> ?PR?_ADVANCE_L?TASK3
  +--> ?PR?_ADVANCE_R?TASK3
  +--> ?PR?RESET_PWM?TASK3

?PR?_?OSSTART?OS_CORE                   -----    -----      -----    -----
  +--> ?PR?_?OS_SCHEDNEW?OS_CORE
  +--> ?PR?OS_CORE
  +--> ?PR?OSSTARTHIGHRDY?OS_CPU_A

*** NEW ROOT ***************************************************

?PR?OSTICKISRUSER?OS_CPU_C              -----    -----      -----    -----
  +--> ?PR?_?OSINTENTER?OS_CORE
  +--> ?PR?USERTICKTIMER?OS_CPU_C
BL51 BANKED LINKER/LOCATER V6.22.2.0                                                  02/22/2021  15:08:13  PAGE 11


  +--> ?PR?_?OSTIMETICK?OS_CORE
  +--> ?PR?_?OSINTEXIT?OS_CORE

?PR?_?OSTIMETICK?OS_CORE                -----    -----      -----    -----
  +--> ?PR?_?OSTIMETICKHOOK?OS_CPU_C
  +--> ?PR?OS_CORE

?PR?_?OSINTEXIT?OS_CORE                 -----    -----      -----    -----
  +--> ?PR?_?OS_SCHEDNEW?OS_CORE
  +--> ?PR?OS_CORE
  +--> ?PR?OSINTCTXSW?OS_CPU_A

?PR?OSINTCTXSW?OS_CPU_A                 -----    -----      -----    -----
  +--> ?PR?OSCTXSW?OS_CPU_A



SYMBOL TABLE OF MODULE:  .\OutPut\uCosii_51 (MAIN)

  VALUE           TYPE          NAME
  ----------------------------------

  -------         MODULE        MAIN
  C:0000H         SYMBOL        _ICE_DUMMY_
  X:FF08H         PUBLIC        P1M0
  X:FF01H         PUBLIC        P0M1
  X:FF10H         PUBLIC        P2M0
  X:FF09H         PUBLIC        P1M1
  X:FF02H         PUBLIC        P0M2
  D:0080H         PUBLIC        P0
  X:FF18H         PUBLIC        P3M0
  X:FF11H         PUBLIC        P2M1
  X:FF0AH         PUBLIC        P1M2
  X:FF03H         PUBLIC        P0M3
  D:0090H         PUBLIC        P1
  X:FF19H         PUBLIC        P3M1
  X:FF12H         PUBLIC        P2M2
  X:FF0BH         PUBLIC        P1M3
  X:FF04H         PUBLIC        P0M4
  D:00A0H         PUBLIC        P2
  X:FF1AH         PUBLIC        P3M2
  X:FF13H         PUBLIC        P2M3
  X:FF0CH         PUBLIC        P1M4
  X:FF05H         PUBLIC        P0M5
  D:00B0H         PUBLIC        P3
  X:FF1BH         PUBLIC        P3M3
  X:FF14H         PUBLIC        P2M4
  X:FF0DH         PUBLIC        P1M5
  X:FF06H         PUBLIC        P0M6
  X:FF1CH         PUBLIC        P3M4
  X:FF15H         PUBLIC        P2M5
  X:FF0EH         PUBLIC        P1M6
  X:FF07H         PUBLIC        P0M7
  X:FF1DH         PUBLIC        P3M5
  X:FF16H         PUBLIC        P2M6
  X:FF0FH         PUBLIC        P1M7
  X:FF17H         PUBLIC        P2M7
BL51 BANKED LINKER/LOCATER V6.22.2.0                                                  02/22/2021  15:08:13  PAGE 12


  X:FEC0H         PUBLIC        SCANCON
  X:FEBDH         PUBLIC        TRMEN
  X:FE94H         PUBLIC        XTALCFG
  D:00A8H         PUBLIC        IE
  D:00F8H         PUBLIC        RSTFR
  X:FF91H         PUBLIC        PWM01_MAP
  X:FF95H         PUBLIC        PWM11_MAP
  X:FFA3H         PUBLIC        SDA_MAP
  X:FF99H         PUBLIC        PWM21_MAP
  X:FEE0H         PUBLIC        SCR0
  X:FE89H         PUBLIC        S2CON2
  X:FEE2H         PUBLIC        SCR1
  X:FEE4H         PUBLIC        SCR2
  X:FEE6H         PUBLIC        SCR3
  X:FEA2H         PUBLIC        CRCC
  X:FE85H         PUBLIC        T5CON1
  X:FEE8H         PUBLIC        SCR4
  X:FEEAH         PUBLIC        SCR5
  X:FEECH         PUBLIC        SCR6
  X:FEEEH         PUBLIC        SCR7
  X:FFA5H         PUBLIC        SCK_MAP
  X:FFA2H         PUBLIC        SCL_MAP
  C:4F5CH         PUBLIC        main
  X:FEA4H         PUBLIC        BORC
  X:FFA1H         PUBLIC        RXD_MAP
  X:FEA5H         PUBLIC        BORDBC
  X:FFA0H         PUBLIC        TXD_MAP
  X:FEA7H         PUBLIC        LVDDBC
  X:FEB8H         PUBLIC        PINTE0
  X:FEB9H         PUBLIC        PINTE1
  X:FEBCH         PUBLIC        P2INTE
  X:FEBAH         PUBLIC        PINTE2
  D:0098H         PUBLIC        SCON
  D:0088H         PUBLIC        TCON
  X:FE95H         PUBLIC        SPOV_RSTEN
  X:FE9BH         PUBLIC        ADCC2
  X:FE91H         PUBLIC        CLKDIV
  D:00B8H         PUBLIC        IE1
  D:00D8H         PUBLIC        IE2
  X:FF80H         PUBLIC        T0_MAP
  X:FF81H         PUBLIC        T1_MAP
  X:FEAAH         PUBLIC        RSTDBC
  X:FF83H         PUBLIC        T3_MAP
  X:FF84H         PUBLIC        T4_MAP
  X:FF85H         PUBLIC        T5_MAP
  X:FEA0H         PUBLIC        WDTCCR
  X:FEBEH         PUBLIC        TRMV
  X:FED0H         PUBLIC        SCCH0
  X:FED1H         PUBLIC        SCCH1
  X:FED2H         PUBLIC        SCCH2
  X:FE93H         PUBLIC        CLKOUT
  X:FED3H         PUBLIC        SCCH3
  X:FFA9H         PUBLIC        RXD2_MAP
  X:FFA8H         PUBLIC        TXD2_MAP
  X:FE8AH         PUBLIC        S2BUF
  X:FF90H         PUBLIC        PWM0_MAP
  X:FFA4H         PUBLIC        SS_MAP
BL51 BANKED LINKER/LOCATER V6.22.2.0                                                  02/22/2021  15:08:13  PAGE 13


  X:FF94H         PUBLIC        PWM1_MAP
  X:FF98H         PUBLIC        PWM2_MAP
  X:FE88H         PUBLIC        S2CON
  X:FE80H         PUBLIC        TCON1
  X:FF9CH         PUBLIC        PWM3_MAP
  X:FF8FH         PUBLIC        CLKO_MAP
  X:FE92H         PUBLIC        FREQ_CLK
  X:FEB0H         PUBLIC        PITS0
  X:FEB1H         PUBLIC        PITS1
  X:FEB2H         PUBLIC        PITS2
  X:FF6BH         PUBLIC        SEGP0EN
  X:FF63H         PUBLIC        COMP0EN
  X:FEB3H         PUBLIC        PITS3
  X:FF6AH         PUBLIC        SEGP1EN
  X:FF62H         PUBLIC        COMP1EN
  X:FEB4H         PUBLIC        PITS4
  X:FF69H         PUBLIC        SEGP2EN
  X:FF61H         PUBLIC        COMP2EN
  X:FF68H         PUBLIC        SEGP3EN
  X:FF60H         PUBLIC        COMP3EN
  X:FFA7H         PUBLIC        MISO_MAP
  X:FFA6H         PUBLIC        MOSI_MAP
  X:01A2H         PUBLIC        Task1Stk
  X:FF40H         PUBLIC        P00DBC
  D:00D0H         PUBLIC        PSW
  X:01D3H         PUBLIC        Task2Stk
  X:FF41H         PUBLIC        P01DBC
  X:0204H         PUBLIC        Task3Stk
  X:FF42H         PUBLIC        P02DBC
  X:FF00H         PUBLIC        P0M0
  C:522BH         SYMBOL        Com0002
  C:522BH         SYMBOL        L?0003
  C:522DH         SYMBOL        L?0004
  -------         PROC          COM0002
  -------         ENDPROC       COM0002
  C:4FA1H         SYMBOL        L?0005
  -------         PROC          MAIN
  C:4F5CH         LINE#         18
  C:4F5CH         LINE#         19
  C:4F5CH         LINE#         20
  C:4F5FH         LINE#         21
  C:4F62H         LINE#         23
  C:4F76H         LINE#         24
  C:4F88H         LINE#         25
  C:4F9EH         LINE#         32
  C:4FA1H         LINE#         33
  -------         ENDPROC       MAIN
  -------         ENDMOD        MAIN

  -------         MODULE        TASK1
  C:0000H         SYMBOL        _ICE_DUMMY_
  D:0080H         PUBLIC        P0
  D:0090H         PUBLIC        P1
  D:00A0H         PUBLIC        P2
  C:51AAH         PUBLIC        f1_timing_case
  D:00B0H         PUBLIC        P3
  X:02B1H         PUBLIC        Buff
BL51 BANKED LINKER/LOCATER V6.22.2.0                                                  02/22/2021  15:08:13  PAGE 14


  C:3EA7H         PUBLIC        UART1_Rpt
  X:02BDH         PUBLIC        guc_Uartcnt
  X:02BEH         PUBLIC        guc_i
  D:00A8H         PUBLIC        IE
  X:02BFH         PUBLIC        f1_fj_xili1
  D:00F8H         PUBLIC        RSTFR
  X:02C3H         PUBLIC        f1_fj_xili2
  B:00B0H.3       PUBLIC        P3_3
  B:0090H.5       PUBLIC        P1_5
  X:02C4H         PUBLIC        f1_wifi_i1
  X:02C5H         PUBLIC        f1_wifi_i2
  X:02C6H         PUBLIC        f1_wifi_mode
  D:0099H         PUBLIC        SBUF
  D:00F5H         PUBLIC        PWM2DH
  D:0098H         PUBLIC        SCON
  D:0088H         PUBLIC        TCON
  C:4883H         PUBLIC        Buff1
  C:488BH         PUBLIC        Buff2
  C:4893H         PUBLIC        Buff3
  D:00F4H         PUBLIC        PWM2DL
  C:48C4H         PUBLIC        Buff4
  C:48CBH         PUBLIC        Buff5
  C:48D2H         PUBLIC        Buff6
  C:48DAH         PUBLIC        Buff7
  B:0020H.5       PUBLIC        wifi_first
  C:48E2H         PUBLIC        Buff8
  D:00B8H         PUBLIC        IE1
  X:02C7H         PUBLIC        guc_Uartbuf_a
  D:00D8H         PUBLIC        IE2
  C:3DB8H         PUBLIC        f1_fan_open
  C:4C45H         PUBLIC        _?Task1
  X:02D3H         PUBLIC        f1_wifi_num
  X:02D4H         PUBLIC        guc_Uartflag
  X:02D5H         PUBLIC        f1_i
  X:02D7H         PUBLIC        wifi_num_flag
  X:02D9H         PUBLIC        f1_fj_xili
  C:48E9H         PUBLIC        Buff10
  D:009EH         PUBLIC        SCON2
  C:4925H         PUBLIC        Buff11
  X:02DAH         PUBLIC        Buff12
  X:02E6H         PUBLIC        Buff13
  C:18A4H         PUBLIC        uart1_data
  X:02F5H         PUBLIC        f1_fj_num
  D:00D0H         PUBLIC        PSW
  C:3932H         SYMBOL        Com00CF
  C:3932H         SYMBOL        L?0208
  C:3932H         SYMBOL        L?0209
  C:3963H         SYMBOL        L?0210
  C:3964H         SYMBOL        L?0211
  C:3967H         SYMBOL        L?0212
  C:3968H         SYMBOL        L?0213
  C:396AH         SYMBOL        L?0214
  C:3972H         SYMBOL        L?0215
  C:3972H         SYMBOL        L?0216
  C:397CH         SYMBOL        L?0217
  C:397DH         SYMBOL        L?0218
  C:3988H         SYMBOL        L?0219
BL51 BANKED LINKER/LOCATER V6.22.2.0                                                  02/22/2021  15:08:13  PAGE 15


  C:398FH         SYMBOL        L?0220
  C:3992H         SYMBOL        L?0221
  C:3994H         SYMBOL        L?0222
  C:3997H         SYMBOL        L?0223
  C:39A3H         SYMBOL        L?0224
  C:39A3H         SYMBOL        L?0225
  C:39A6H         SYMBOL        L?0226
  C:39A9H         SYMBOL        L?0227
  C:39B0H         SYMBOL        L?0228
  C:39B0H         SYMBOL        L?0229
  C:39B2H         SYMBOL        L?0230
  C:39BDH         SYMBOL        L?0231
  C:39BDH         SYMBOL        L?0232
  C:39CAH         SYMBOL        L?0233
  C:39CAH         SYMBOL        L?0234
  C:39D7H         SYMBOL        L?0235
  C:39F2H         SYMBOL        L?0236
  C:39F2H         SYMBOL        L?0237
  C:39F7H         SYMBOL        L?0238
  C:39FFH         SYMBOL        L?0239
  C:39FFH         SYMBOL        L?0240
  C:3A0CH         SYMBOL        L?0241
  C:3A0CH         SYMBOL        L?0242
  C:3A0DH         SYMBOL        L?0243
  C:3A14H         SYMBOL        L?0244
  C:3A17H         SYMBOL        L?0245
  C:3A22H         SYMBOL        L?0246
  C:3A26H         SYMBOL        L?0247
  C:3A2FH         SYMBOL        L?0248
  C:3A2FH         SYMBOL        L?0249
  C:3A38H         SYMBOL        L?0250
  C:3A44H         SYMBOL        L?0251
  C:3A44H         SYMBOL        L?0252
  C:3A4BH         SYMBOL        L?0253
  C:3A4EH         SYMBOL        L?0254
  C:3A55H         SYMBOL        L?0255
  C:3A55H         SYMBOL        L?0256
  C:3A5DH         SYMBOL        L?0257
  C:3A5EH         SYMBOL        L?0258
  C:3A65H         SYMBOL        L?0259
  C:3A70H         SYMBOL        L?0260
  C:3A70H         SYMBOL        L?0261
  -------         PROC          COM00CF
  -------         ENDPROC       COM00CF
  -------         PROC          _?TASK1
  x:0000H         SYMBOL        ppdata
  C:4C45H         LINE#         47
  C:4C53H         LINE#         51
  C:4C6EH         LINE#         54
  C:4C6EH         LINE#         55
  C:4C77H         LINE#         58
  C:4C7FH         LINE#         59
  C:4C7FH         LINE#         60
  C:4C97H         LINE#         61
  C:4C97H         LINE#         63
  C:4CA3H         LINE#         64
  C:4CB3H         LINE#         66
BL51 BANKED LINKER/LOCATER V6.22.2.0                                                  02/22/2021  15:08:13  PAGE 16


  C:4CB8H         LINE#         67
  C:4CBBH         LINE#         68
  C:4CBDH         LINE#         70
  C:4CBDH         LINE#         72
  C:4CC0H         LINE#         74
  C:4CC3H         LINE#         77
  C:4CC3H         LINE#         80
  C:4CC6H         LINE#         86
  -------         ENDPROC       _?TASK1
  -------         PROC          F1_FAN_OPEN
  C:3DB8H         LINE#         92
  C:3DB8H         LINE#         93
  C:3DB8H         LINE#         94
  C:3DC7H         LINE#         95
  C:3DC7H         LINE#         96
  C:3DD3H         LINE#         97
  C:3DD8H         LINE#         98
  C:3DD8H         LINE#         101
  C:3DDEH         LINE#         102
  C:3DDEH         LINE#         104
  C:3DECH         LINE#         105
  C:3DECH         LINE#         106
  C:3DECH         LINE#         107
  C:3DF6H         LINE#         108
  C:3DF8H         LINE#         109
  C:3DF8H         LINE#         110
  C:3E02H         LINE#         111
  C:3E04H         LINE#         112
  C:3E04H         LINE#         113
  C:3E0EH         LINE#         114
  C:3E0EH         LINE#         116
  C:3E0EH         LINE#         118
  C:3E21H         LINE#         119
  C:3E26H         LINE#         120
  C:3E33H         LINE#         121
  C:3E33H         LINE#         123
  C:3E38H         LINE#         124
  C:3E4AH         LINE#         125
  C:3E4CH         LINE#         128
  C:3E56H         LINE#         131
  C:3E64H         LINE#         132
  C:3E6EH         LINE#         135
  C:3E74H         LINE#         136
  C:3E74H         LINE#         137
  C:3E74H         LINE#         138
  C:3E74H         LINE#         149
  C:3E76H         LINE#         151
  C:3E76H         LINE#         153
  C:3E7FH         LINE#         154
  C:3E8AH         LINE#         177
  C:3E8AH         LINE#         180
  C:3E98H         LINE#         181
  C:3E98H         LINE#         182
  C:3E9BH         LINE#         183
  C:3E9EH         LINE#         187
  C:3E9EH         LINE#         189
  C:3E9FH         LINE#         191
BL51 BANKED LINKER/LOCATER V6.22.2.0                                                  02/22/2021  15:08:13  PAGE 17


  C:3E9FH         LINE#         192
  C:3EA2H         LINE#         193
  C:3EA4H         LINE#         194
  C:3EA6H         LINE#         198
  C:3EA6H         LINE#         203
  -------         ENDPROC       F1_FAN_OPEN
  -------         PROC          F1_TIMING_CASE
  C:51AAH         LINE#         213
  C:51AAH         LINE#         214
  C:51AAH         LINE#         215
  C:51B8H         LINE#         216
  C:51C9H         LINE#         217
  C:51C9H         LINE#         218
  C:51CDH         LINE#         219
  C:51CDH         LINE#         220
  C:51D0H         LINE#         221
  C:51D3H         LINE#         222
  C:51D6H         LINE#         223
  C:51D9H         LINE#         225
  C:51D9H         LINE#         226
  -------         ENDPROC       F1_TIMING_CASE
  -------         PROC          UART1_DATA
  C:18A4H         LINE#         228
  C:18A4H         LINE#         229
  C:18A4H         LINE#         230
  C:18ABH         LINE#         231
  C:18ABH         LINE#         233
  C:18B1H         LINE#         234
  C:18B1H         LINE#         235
  C:18BFH         LINE#         236
  C:18BFH         LINE#         237
  C:18C6H         LINE#         238
  C:18CBH         LINE#         239
  C:18CBH         LINE#         240
  C:18D0H         LINE#         241
  C:18D0H         LINE#         242
  C:18D6H         LINE#         243
  C:18D6H         LINE#         244
  C:18DFH         LINE#         245
  C:18DFH         LINE#         246
  C:18E6H         LINE#         247
  C:18EBH         LINE#         248
  C:18EBH         LINE#         249
  C:18F0H         LINE#         250
  C:18F0H         LINE#         251
  C:18F8H         LINE#         252
  C:18F8H         LINE#         253
  C:1901H         LINE#         254
  C:1901H         LINE#         255
  C:1908H         LINE#         256
  C:190DH         LINE#         257
  C:190DH         LINE#         258
  C:1912H         LINE#         259
  C:1912H         LINE#         260
  C:1915H         LINE#         261
  C:191AH         LINE#         262
  C:191AH         LINE#         266
BL51 BANKED LINKER/LOCATER V6.22.2.0                                                  02/22/2021  15:08:13  PAGE 18


  C:1923H         LINE#         267
  C:1923H         LINE#         269
  C:1926H         LINE#         270
  C:1931H         LINE#         271
  C:1931H         LINE#         272
  C:193BH         LINE#         273
  C:193BH         LINE#         274
  C:1941H         LINE#         275
  C:1944H         LINE#         276
  C:1944H         LINE#         277
  C:1946H         LINE#         278
  C:194FH         LINE#         279
  C:194FH         LINE#         280
  C:1956H         LINE#         281
  C:195BH         LINE#         282
  C:195BH         LINE#         283
  C:1960H         LINE#         284
  C:1960H         LINE#         286
  C:1960H         LINE#         287
  C:196AH         LINE#         288
  C:196AH         LINE#         289
  C:1971H         LINE#         290
  C:1976H         LINE#         291
  C:1976H         LINE#         292
  C:197BH         LINE#         293
  C:197BH         LINE#         294
  C:197BH         LINE#         295
  C:1987H         LINE#         296
  C:1987H         LINE#         297
  C:1999H         LINE#         298
  C:1999H         LINE#         299
  C:19A0H         LINE#         300
  C:19A5H         LINE#         301
  C:19A5H         LINE#         302
  C:19AAH         LINE#         303
  C:19AAH         LINE#         304
  C:19B6H         LINE#         305
  C:19B6H         LINE#         306
  C:19BFH         LINE#         307
  C:19BFH         LINE#         308
  C:19C6H         LINE#         309
  C:19CBH         LINE#         310
  C:19CBH         LINE#         311
  C:19D0H         LINE#         312
  C:19D0H         LINE#         313
  C:19DCH         LINE#         314
  C:19DCH         LINE#         315
  C:19E5H         LINE#         316
  C:19E5H         LINE#         317
  C:19ECH         LINE#         318
  C:19F1H         LINE#         319
  C:19F1H         LINE#         320
  C:19F6H         LINE#         321
  C:19F6H         LINE#         322
  C:1A08H         LINE#         323
  C:1A08H         LINE#         324
  C:1A0BH         LINE#         325
BL51 BANKED LINKER/LOCATER V6.22.2.0                                                  02/22/2021  15:08:13  PAGE 19


  C:1A0BH         LINE#         326
  C:1A1EH         LINE#         327
  C:1A1EH         LINE#         328
  C:1A23H         LINE#         329
  C:1A23H         LINE#         336
  C:1A2CH         LINE#         337
  C:1A2CH         LINE#         338
  C:1A2FH         LINE#         339
  C:1A3BH         LINE#         340
  C:1A3BH         LINE#         341
  C:1A40H         LINE#         342
  C:1A42H         LINE#         343
  C:1A42H         LINE#         344
  C:1A45H         LINE#         345
  C:1A45H         LINE#         346
  C:1A50H         LINE#         347
  C:1A50H         LINE#         348
  C:1A56H         LINE#         349
  C:1A56H         LINE#         350
  C:1A58H         LINE#         351
  C:1A5AH         LINE#         352
  C:1A5CH         LINE#         354
  C:1A5CH         LINE#         355
  C:1A5CH         LINE#         356
  C:1A5CH         LINE#         357
  C:1A5FH         LINE#         358
  C:1A5FH         LINE#         359
  C:1A5FH         LINE#         360
  C:1A62H         LINE#         361
  C:1A62H         LINE#         363
  C:1A72H         LINE#         364
  C:1A72H         LINE#         365
  C:1A78H         LINE#         366
  C:1A78H         LINE#         367
  C:1A7BH         LINE#         368
  C:1A7DH         LINE#         369
  C:1A7FH         LINE#         371
  C:1A7FH         LINE#         372
  C:1A7FH         LINE#         373
  C:1A7FH         LINE#         374
  C:1A82H         LINE#         375
  C:1A82H         LINE#         377
  C:1A82H         LINE#         378
  C:1A85H         LINE#         379
  C:1A85H         LINE#         380
  C:1A92H         LINE#         381
  C:1A92H         LINE#         382
  C:1A92H         LINE#         383
  C:1A92H         LINE#         384
  C:1A95H         LINE#         385
  C:1A95H         LINE#         386
  C:1A98H         LINE#         387
  C:1A98H         LINE#         388
  C:1AA4H         LINE#         389
  C:1AA4H         LINE#         390
  C:1AA4H         LINE#         391
  C:1AA4H         LINE#         392
BL51 BANKED LINKER/LOCATER V6.22.2.0                                                  02/22/2021  15:08:13  PAGE 20


  C:1AA7H         LINE#         393
  C:1AA7H         LINE#         394
  C:1AAAH         LINE#         395
  C:1AAAH         LINE#         396
  C:1AB5H         LINE#         397
  C:1AB5H         LINE#         398
  C:1AB5H         LINE#         399
  C:1ABAH         LINE#         400
  C:1AC1H         LINE#         402
  C:1AC6H         LINE#         403
  C:1AC6H         LINE#         404
  C:1ACBH         LINE#         405
  C:1ACEH         LINE#         407
  C:1ACEH         LINE#         408
  C:1ADAH         LINE#         409
  C:1ADAH         LINE#         410
  C:1ADAH         LINE#         411
  C:1ADFH         LINE#         412
  C:1AE6H         LINE#         414
  C:1AEBH         LINE#         415
  C:1AEBH         LINE#         416
  C:1AF0H         LINE#         417
  C:1AF3H         LINE#         419
  C:1AF3H         LINE#         420
  C:1B01H         LINE#         421
  C:1B01H         LINE#         422
  C:1B01H         LINE#         423
  C:1B06H         LINE#         424
  C:1B0DH         LINE#         426
  C:1B12H         LINE#         427
  C:1B12H         LINE#         428
  C:1B17H         LINE#         429
  C:1B1AH         LINE#         431
  C:1B1AH         LINE#         432
  C:1B27H         LINE#         433
  C:1B27H         LINE#         434
  C:1B27H         LINE#         435
  C:1B2CH         LINE#         436
  C:1B33H         LINE#         438
  C:1B38H         LINE#         439
  C:1B38H         LINE#         440
  C:1B3DH         LINE#         441
  C:1B40H         LINE#         443
  C:1B40H         LINE#         444
  C:1B4DH         LINE#         445
  C:1B4DH         LINE#         446
  C:1B55H         LINE#         447
  C:1B55H         LINE#         448
  C:1B58H         LINE#         449
  C:1B5BH         LINE#         450
  C:1B60H         LINE#         451
  C:1B65H         LINE#         452
  C:1B67H         LINE#         453
  C:1B69H         LINE#         455
  C:1B6BH         LINE#         456
  C:1B6DH         LINE#         458
  C:1B6DH         LINE#         459
BL51 BANKED LINKER/LOCATER V6.22.2.0                                                  02/22/2021  15:08:13  PAGE 21


  C:1B70H         LINE#         460
  C:1B72H         LINE#         461
  C:1B74H         LINE#         462
  C:1B76H         LINE#         463
  C:1B76H         LINE#         464
  C:1B76H         LINE#         465
  C:1B79H         LINE#         466
  C:1B79H         LINE#         469
  C:1B79H         LINE#         470
  C:1B86H         LINE#         471
  C:1B86H         LINE#         472
  C:1B8FH         LINE#         473
  C:1B8FH         LINE#         474
  C:1B96H         LINE#         475
  C:1B9BH         LINE#         476
  C:1B9BH         LINE#         477
  C:1BA0H         LINE#         478
  C:1BA2H         LINE#         479
  C:1BA5H         LINE#         480
  C:1BA5H         LINE#         482
  C:1BB3H         LINE#         483
  C:1BB3H         LINE#         484
  C:1BBBH         LINE#         485
  C:1BBFH         LINE#         486
  C:1BC4H         LINE#         487
  C:1BCCH         LINE#         488
  C:1BCCH         LINE#         489
  C:1BD9H         LINE#         490
  C:1BDEH         LINE#         491
  C:1BDEH         LINE#         492
  C:1BE3H         LINE#         494
  C:1BE3H         LINE#         495
  C:1BE6H         LINE#         496
  C:1BE6H         LINE#         497
  C:1BE6H         LINE#         498
  C:1BE6H         LINE#         508
  C:1BE6H         LINE#         509
  C:1BE6H         LINE#         510
  C:1BE9H         LINE#         511
  C:1BECH         LINE#         512
  C:1BECH         LINE#         516
  C:1BF1H         LINE#         517
  C:1C05H         LINE#         518
  C:1C05H         LINE#         519
  C:1C09H         LINE#         520
  C:1C0DH         LINE#         521
  C:1C10H         LINE#         522
  C:1C24H         LINE#         523
  C:1C24H         LINE#         524
  C:1C32H         LINE#         525
  C:1C32H         LINE#         526
  C:1C3CH         LINE#         527
  C:1C4EH         LINE#         529
  C:1C4EH         LINE#         530
  C:1C5AH         LINE#         531
  C:1C5AH         LINE#         532
  C:1C61H         LINE#         533
BL51 BANKED LINKER/LOCATER V6.22.2.0                                                  02/22/2021  15:08:13  PAGE 22


  C:1C61H         LINE#         534
  C:1C74H         LINE#         535
  C:1C7FH         LINE#         537
  C:1C84H         LINE#         538
  C:1C8AH         LINE#         539
  C:1CA1H         LINE#         540
  C:1CA9H         LINE#         541
  C:1CA9H         LINE#         542
  C:1CB2H         LINE#         543
  C:1CB7H         LINE#         544
  C:1CB7H         LINE#         545
  C:1CBCH         LINE#         548
  C:1CBCH         LINE#         549
  C:1CC5H         LINE#         550
  C:1CC5H         LINE#         551
  C:1CCAH         LINE#         552
  C:1CD2H         LINE#         553
  C:1CDBH         LINE#         554
  C:1CE3H         LINE#         556
  C:1CE8H         LINE#         557
  C:1CE8H         LINE#         558
  C:1CEBH         LINE#         559
  C:1CF3H         LINE#         560
  C:1CF3H         LINE#         561
  C:1CFCH         LINE#         562
  C:1D01H         LINE#         563
  C:1D01H         LINE#         564
  C:1D06H         LINE#         566
  C:1D06H         LINE#         568
  C:1D0FH         LINE#         569
  C:1D0FH         LINE#         570
  C:1D14H         LINE#         571
  C:1D1CH         LINE#         572
  C:1D22H         LINE#         573
  C:1D2AH         LINE#         574
  C:1D32H         LINE#         575
  C:1D32H         LINE#         576
  C:1D47H         LINE#         577
  C:1D4FH         LINE#         579
  C:1D55H         LINE#         580
  C:1D57H         LINE#         582
  C:1D5CH         LINE#         584
  C:1D5CH         LINE#         585
  C:1D5FH         LINE#         586
  C:1D67H         LINE#         587
  C:1D67H         LINE#         588
  C:1D70H         LINE#         589
  C:1D75H         LINE#         590
  C:1D75H         LINE#         591
  C:1D7AH         LINE#         593
  C:1D7AH         LINE#         594
  C:1D82H         LINE#         595
  C:1D82H         LINE#         597
  C:1D8AH         LINE#         598
  C:1D8EH         LINE#         599
  C:1D93H         LINE#         600
  C:1DA4H         LINE#         601
BL51 BANKED LINKER/LOCATER V6.22.2.0                                                  02/22/2021  15:08:13  PAGE 23


  C:1DA4H         LINE#         602
  C:1DB1H         LINE#         603
  C:1DB6H         LINE#         604
  C:1DB6H         LINE#         605
  C:1DBBH         LINE#         634
  C:1DBBH         LINE#         635
  C:1DC7H         LINE#         636
  C:1DC7H         LINE#         637
  C:1DCFH         LINE#         638
  C:1DD8H         LINE#         639
  C:1DDEH         LINE#         640
  C:1DE7H         LINE#         641
  C:1DF2H         LINE#         642
  C:1DFAH         LINE#         643
  C:1E00H         LINE#         644
  C:1E08H         LINE#         645
  C:1E13H         LINE#         646
  C:1E1BH         LINE#         647
  C:1E21H         LINE#         648
  C:1E29H         LINE#         649
  C:1E34H         LINE#         650
  C:1E3CH         LINE#         652
  C:1E41H         LINE#         653
  C:1E41H         LINE#         654
  C:1E44H         LINE#         655
  C:1E4CH         LINE#         656
  C:1E4CH         LINE#         657
  C:1E55H         LINE#         658
  C:1E5AH         LINE#         659
  C:1E5AH         LINE#         660
  C:1E5FH         LINE#         661
  C:1E5FH         LINE#         662
  C:1E5FH         LINE#         663
  C:1E5FH         LINE#         665
  C:1E68H         LINE#         666
  C:1E71H         LINE#         667
  C:1E71H         LINE#         668
  C:1E71H         LINE#         669
  C:1E74H         LINE#         670
  C:1E77H         LINE#         671
  C:1E77H         LINE#         672
  -------         ENDPROC       UART1_DATA
  -------         PROC          UART1_RPT
  C:3EA7H         LINE#         683
  C:3EBAH         LINE#         685
  C:3EC2H         LINE#         686
  C:3EC2H         LINE#         687
  C:3EEDH         LINE#         688
  C:3EEDH         LINE#         689
  C:3F01H         LINE#         690
  C:3F1FH         LINE#         691
  C:3F1FH         LINE#         692
  C:3F22H         LINE#         693
  C:3F28H         LINE#         694
  C:3F28H         LINE#         695
  C:3F36H         LINE#         696
  C:3F36H         LINE#         697
BL51 BANKED LINKER/LOCATER V6.22.2.0                                                  02/22/2021  15:08:13  PAGE 24


  C:3F36H         LINE#         698
  C:3F39H         LINE#         699
  C:3F39H         LINE#         700
  C:3F49H         LINE#         701
  C:3F49H         LINE#         702
  C:3F49H         LINE#         703
  C:3F4CH         LINE#         704
  C:3F4CH         LINE#         705
  C:3F54H         LINE#         706
  C:3F54H         LINE#         707
  C:3F54H         LINE#         708
  C:3F57H         LINE#         709
  C:3F57H         LINE#         710
  C:3F5AH         LINE#         711
  C:3F5AH         LINE#         712
  C:3F67H         LINE#         713
  C:3F67H         LINE#         714
  C:3F6DH         LINE#         715
  C:3F73H         LINE#         716
  C:3F73H         LINE#         717
  C:3F7BH         LINE#         718
  C:3F7CH         LINE#         719
  C:3F7CH         LINE#         720
  -------         ENDPROC       UART1_RPT
  -------         ENDMOD        TASK1

  -------         MODULE        TASK2
  C:0000H         SYMBOL        _ICE_DUMMY_
  X:0235H         PUBLIC        error_xuankong
  D:0080H         PUBLIC        P0
  D:0090H         PUBLIC        P1
  X:0236H         PUBLIC        bat_i
  D:00A0H         PUBLIC        P2
  D:00B0H         PUBLIC        P3
  X:0237H         PUBLIC        TK_R_num
  X:0238H         PUBLIC        f2_kaiji
  B:0090H.3       PUBLIC        L1_touch
  X:023AH         PUBLIC        error_fengji
  X:023BH         PUBLIC        ZJ_num1
  X:023CH         PUBLIC        TK_ZJ_num1
  X:023EH         PUBLIC        ZJ_num2
  B:0090H.4       PUBLIC        R1_touch
  X:023FH         PUBLIC        f2_chongdian_jishuqi
  D:00A8H         PUBLIC        IE
  X:0243H         PUBLIC        error_dj2
  C:47CFH         PUBLIC        _f2_DJ_mode
  B:00B0H.0       PUBLIC        P3_0
  B:00A0H.1       PUBLIC        P2_1
  D:00F8H         PUBLIC        RSTFR
  B:0090H.0       PUBLIC        crash
  B:00B0H.1       PUBLIC        P3_1
  B:00B0H.2       PUBLIC        P3_2
  B:00B0H.3       PUBLIC        P3_3
  B:0090H.5       PUBLIC        P1_5
  B:0080H.6       PUBLIC        P0_6
  X:0244H         PUBLIC        BUZZER_num
  B:0080H.7       PUBLIC        P0_7
BL51 BANKED LINKER/LOCATER V6.22.2.0                                                  02/22/2021  15:08:13  PAGE 25


  C:3F8DH         PUBLIC        _bubbleSort
  C:304CH         PUBLIC        f2_touch
  X:0245H         PUBLIC        f2_mode
  X:0246H         PUBLIC        TK_ZJ
  C:1E78H         PUBLIC        f2_ZJ_MODE
  X:0247H         PUBLIC        f2_dianliang
  C:2A83H         PUBLIC        f2_error
  X:0249H         PUBLIC        f2_chongdian_flag
  X:024AH         PUBLIC        guc_AdcFlag
  C:4931H         PUBLIC        f2_power
  X:024BH         PUBLIC        error_flag
  X:024CH         PUBLIC        f2_daiji_flag1
  B:0020H.0       PUBLIC        sensor_error
  C:3A77H         PUBLIC        f2_error_buzzer
  B:00B0H.4       PUBLIC        power
  C:2C97H         PUBLIC        f2_bat
  D:0087H         PUBLIC        PCON
  X:0250H         PUBLIC        bat_i1
  X:0254H         PUBLIC        ZJ_wifi_flag
  D:00BDH         PUBLIC        WDTC
  D:0098H         PUBLIC        SCON
  D:0088H         PUBLIC        TCON
  X:0255H         PUBLIC        DJ_L_flag
  X:0257H         PUBLIC        DJ_M_flag
  X:0259H         PUBLIC        f2_dianliang_wifi
  X:025AH         PUBLIC        error_dianliang
  D:00B4H         PUBLIC        ADCC0
  X:025BH         PUBLIC        DJ_R_flag
  X:025DH         PUBLIC        f2_chongdian_jishuqi2
  D:00B8H         PUBLIC        IE1
  X:0261H         PUBLIC        bat_mode
  D:00D8H         PUBLIC        IE2
  C:4A86H         PUBLIC        _f2_Get_ADC
  C:37DFH         PUBLIC        _?Task2
  C:5326H         PUBLIC        _f2_GRled
  B:0020H.1       PUBLIC        touch_test
  X:0262H         PUBLIC        f2_ap
  X:0264H         PUBLIC        error_pengzhuang
  X:0265H         PUBLIC        f2_LED
  X:0266H         PUBLIC        TK_ZJ_L
  X:0267H         PUBLIC        error_luanzi_L
  X:0268H         PUBLIC        f2_buzzer_num
  X:026AH         PUBLIC        TK_ZJ1
  X:026BH         PUBLIC        TK_ZJ_R
  X:026CH         PUBLIC        ZJ_num
  X:026DH         PUBLIC        TK_ZJ_num
  X:026EH         PUBLIC        error_luanzi_R
  X:026FH         PUBLIC        ADC_0
  X:0271H         PUBLIC        f2_dianliang_num
  X:0272H         PUBLIC        f2_chongdian_flag1
  X:0274H         PUBLIC        ADC_1
  X:0276H         PUBLIC        ADC_2
  B:0020H.2       PUBLIC        sensor_error_dj
  X:0278H         PUBLIC        ADC_3
  X:027AH         PUBLIC        ADC_4
  X:027CH         PUBLIC        f2_wifi_num
  X:027EH         PUBLIC        ADC_5
BL51 BANKED LINKER/LOCATER V6.22.2.0                                                  02/22/2021  15:08:13  PAGE 26


  X:0280H         PUBLIC        f2_dianliang_sum
  C:52F3H         PUBLIC        f2_BUZZER
  X:0294H         PUBLIC        ADC_6
  X:0296H         PUBLIC        error_bianshua
  X:0297H         PUBLIC        ADC_7
  C:530DH         PUBLIC        ADC_Rpt
  B:00A0H.0       PUBLIC        power_enabled
  X:0299H         PUBLIC        BUZZER_flag
  X:029AH         PUBLIC        DJ_L_ADC
  X:029CH         PUBLIC        DJ_M_ADC
  X:029EH         PUBLIC        ADC_ait
  X:029FH         PUBLIC        DJ_R_ADC
  X:02A1H         PUBLIC        DJ_L_num
  X:02A2H         PUBLIC        DJ_M_num
  X:02A3H         PUBLIC        guc_Uartbuf_a1
  X:02AFH         PUBLIC        DJ_R_num
  C:3B9FH         PUBLIC        f2_standby
  C:3520H         PUBLIC        f2_ledshow
  D:00D0H         PUBLIC        PSW
  X:02B0H         PUBLIC        TK_L_num
  C:2853H         SYMBOL        Com0185
  C:2853H         SYMBOL        L?0390
  C:2856H         SYMBOL        L?0391
  C:2859H         SYMBOL        L?0392
  C:285CH         SYMBOL        L?0393
  C:285DH         SYMBOL        L?0394
  C:2864H         SYMBOL        L?0395
  C:286BH         SYMBOL        L?0396
  C:286BH         SYMBOL        L?0397
  C:286CH         SYMBOL        L?0398
  C:286EH         SYMBOL        L?0399
  C:2871H         SYMBOL        L?0400
  C:2872H         SYMBOL        L?0401
  C:2879H         SYMBOL        L?0402
  C:287EH         SYMBOL        L?0403
  C:2881H         SYMBOL        L?0404
  C:2883H         SYMBOL        L?0405
  C:2892H         SYMBOL        L?0406
  C:2892H         SYMBOL        L?0407
  C:28A1H         SYMBOL        L?0408
  C:28A4H         SYMBOL        L?0409
  C:28B1H         SYMBOL        L?0410
  C:28B1H         SYMBOL        L?0411
  C:28B4H         SYMBOL        L?0412
  C:28BCH         SYMBOL        L?0413
  C:28BCH         SYMBOL        L?0414
  C:28DDH         SYMBOL        L?0415
  C:28DDH         SYMBOL        L?0416
  C:28E8H         SYMBOL        L?0417
  C:28EFH         SYMBOL        L?0418
  C:28F7H         SYMBOL        L?0419
  C:28FAH         SYMBOL        L?0420
  C:2905H         SYMBOL        L?0421
  C:2906H         SYMBOL        L?0422
  C:290CH         SYMBOL        L?0423
  C:2913H         SYMBOL        L?0424
  C:2913H         SYMBOL        L?0425
BL51 BANKED LINKER/LOCATER V6.22.2.0                                                  02/22/2021  15:08:13  PAGE 27


  C:291BH         SYMBOL        L?0426
  C:291BH         SYMBOL        L?0427
  C:2922H         SYMBOL        L?0428
  C:2922H         SYMBOL        L?0429
  C:2925H         SYMBOL        L?0430
  C:2927H         SYMBOL        L?0431
  C:292EH         SYMBOL        L?0432
  C:292FH         SYMBOL        L?0433
  C:2935H         SYMBOL        L?0434
  C:293CH         SYMBOL        L?0435
  C:295FH         SYMBOL        L?0436
  C:2960H         SYMBOL        L?0437
  C:2966H         SYMBOL        L?0438
  C:296DH         SYMBOL        L?0439
  C:296DH         SYMBOL        L?0440
  C:2977H         SYMBOL        L?0442
  C:2983H         SYMBOL        L?0443
  C:298BH         SYMBOL        L?0444
  C:298FH         SYMBOL        L?0445
  C:2990H         SYMBOL        L?0446
  C:2997H         SYMBOL        L?0447
  C:2997H         SYMBOL        L?0448
  C:299EH         SYMBOL        L?0449
  C:29A4H         SYMBOL        L?0450
  C:29ACH         SYMBOL        L?0451
  C:29ACH         SYMBOL        L?0452
  C:29B3H         SYMBOL        L?0453
  C:29B3H         SYMBOL        L?0454
  C:29BAH         SYMBOL        L?0455
  C:29BAH         SYMBOL        L?0456
  C:29C1H         SYMBOL        L?0457
  C:29C1H         SYMBOL        L?0458
  C:29CAH         SYMBOL        L?0459
  C:29CAH         SYMBOL        L?0460
  C:29D5H         SYMBOL        L?0463
  C:29D8H         SYMBOL        L?0464
  C:29E1H         SYMBOL        L?0465
  C:29E4H         SYMBOL        L?0466
  C:29EBH         SYMBOL        L?0467
  C:29FAH         SYMBOL        L?0468
  C:2A07H         SYMBOL        L?0469
  C:2A07H         SYMBOL        L?0470
  C:2A10H         SYMBOL        L?0471
  C:2A10H         SYMBOL        L?0472
  C:2A19H         SYMBOL        L?0473
  C:2A19H         SYMBOL        L?0474
  C:2A20H         SYMBOL        L?0475
  C:2A20H         SYMBOL        L?0476
  C:2A27H         SYMBOL        L?0477
  C:2A2AH         SYMBOL        L?0478
  C:2A31H         SYMBOL        L?0479
  C:2A31H         SYMBOL        L?0480
  C:2A38H         SYMBOL        L?0481
  C:2A38H         SYMBOL        L?0482
  C:2A3FH         SYMBOL        L?0483
  C:2A4BH         SYMBOL        L?0484
  C:2A57H         SYMBOL        L?0485
BL51 BANKED LINKER/LOCATER V6.22.2.0                                                  02/22/2021  15:08:13  PAGE 28


  C:2A63H         SYMBOL        L?0486
  C:2A6FH         SYMBOL        L?0487
  C:2A79H         SYMBOL        L?0488
  -------         PROC          COM0185
  -------         ENDPROC       COM0185
  C:390EH         SYMBOL        L?0441
  C:391DH         SYMBOL        L?0461
  C:3927H         SYMBOL        L?0462
  -------         PROC          _?TASK2
  x:0000H         SYMBOL        ppdata
  C:37DFH         LINE#         95
  C:37EDH         LINE#         97
  C:3808H         LINE#         98
  C:3811H         LINE#         100
  C:3811H         LINE#         102
  C:3814H         LINE#         104
  C:3822H         LINE#         106
  C:3825H         LINE#         108
  C:3828H         LINE#         110
  C:382BH         LINE#         112
  C:382EH         LINE#         114
  C:3831H         LINE#         117
  C:3836H         LINE#         118
  C:3836H         LINE#         119
  C:383CH         LINE#         120
  C:383FH         LINE#         121
  C:384EH         LINE#         122
  C:385DH         LINE#         123
  C:386CH         LINE#         124
  C:386CH         LINE#         126
  C:3872H         LINE#         127
  C:3872H         LINE#         129
  C:3875H         LINE#         131
  C:3878H         LINE#         133
  C:387BH         LINE#         135
  C:387EH         LINE#         136
  C:387EH         LINE#         139
  C:3880H         LINE#         140
  C:3889H         LINE#         142
  C:388EH         LINE#         143
  C:388EH         LINE#         144
  C:3895H         LINE#         145
  C:3895H         LINE#         146
  C:3895H         LINE#         147
  C:3898H         LINE#         148
  C:389DH         LINE#         149
  C:389FH         LINE#         151
  C:389FH         LINE#         152
  C:38A4H         LINE#         153
  C:38A7H         LINE#         154
  C:38ADH         LINE#         155
  C:38ADH         LINE#         156
  C:38ADH         LINE#         161
  C:38C1H         LINE#         162
  C:38C1H         LINE#         164
  C:38D1H         LINE#         165
  C:38E1H         LINE#         166
BL51 BANKED LINKER/LOCATER V6.22.2.0                                                  02/22/2021  15:08:13  PAGE 29


  C:38F8H         LINE#         195
  C:38F8H         LINE#         199
  C:3906H         LINE#         200
  C:3908H         LINE#         206
  C:390BH         LINE#         207
  -------         ENDPROC       _?TASK2
  -------         PROC          F2_STANDBY
  C:3B9FH         LINE#         210
  C:3B9FH         LINE#         211
  C:3B9FH         LINE#         213
  C:3BB2H         LINE#         214
  C:3BB2H         LINE#         215
  C:3BBDH         LINE#         216
  C:3BC1H         LINE#         218
  C:3BC6H         LINE#         219
  C:3BC6H         LINE#         220
  C:3BD9H         LINE#         221
  C:3BD9H         LINE#         222
  C:3BDAH         LINE#         223
  C:3BDAH         LINE#         224
  C:3BDDH         LINE#         225
  C:3BE7H         LINE#         226
  C:3BE7H         LINE#         227
  C:3BF5H         LINE#         228
  C:3BF5H         LINE#         229
  C:3C0EH         LINE#         230
  C:3C15H         LINE#         231
  C:3C21H         LINE#         232
  C:3C25H         LINE#         234
  C:3C2AH         LINE#         235
  C:3C2AH         LINE#         236
  C:3C38H         LINE#         237
  C:3C38H         LINE#         238
  C:3C40H         LINE#         239
  C:3C40H         LINE#         240
  C:3C46H         LINE#         241
  C:3C48H         LINE#         242
  C:3C4AH         LINE#         244
  C:3C4FH         LINE#         245
  C:3C59H         LINE#         246
  C:3C59H         LINE#         247
  C:3C70H         LINE#         248
  C:3C73H         LINE#         249
  C:3C8AH         LINE#         250
  C:3C8AH         LINE#         251
  C:3C8CH         LINE#         252
  C:3C92H         LINE#         253
  C:3C9CH         LINE#         254
  C:3C9CH         LINE#         255
  C:3CA1H         LINE#         256
  C:3CA1H         LINE#         257
  C:3CA9H         LINE#         258
  C:3CACH         LINE#         259
  C:3CB5H         LINE#         260
  C:3CB5H         LINE#         261
  C:3CB8H         LINE#         262
  C:3CBAH         LINE#         263
BL51 BANKED LINKER/LOCATER V6.22.2.0                                                  02/22/2021  15:08:13  PAGE 30


  C:3CBCH         LINE#         265
  C:3CBFH         LINE#         266
  C:3CBFH         LINE#         268
  C:3CBFH         LINE#         270
  -------         ENDPROC       F2_STANDBY
  -------         PROC          F2_BAT
  C:2C97H         LINE#         273
  C:2C97H         LINE#         274
  C:2C97H         LINE#         275
  C:2CA3H         LINE#         276
  C:2CA3H         LINE#         277
  C:2CA8H         LINE#         278
  C:2CA8H         LINE#         279
  C:2CB2H         LINE#         280
  C:2CB7H         LINE#         282
  C:2CC3H         LINE#         283
  C:2CDCH         LINE#         284
  C:2CDCH         LINE#         285
  C:2CE5H         LINE#         286
  C:2CEDH         LINE#         287
  C:2CF6H         LINE#         288
  C:2CFBH         LINE#         290
  C:2D06H         LINE#         292
  C:2D06H         LINE#         294
  C:2D08H         LINE#         296
  C:2D08H         LINE#         297
  C:2D10H         LINE#         298
  C:2D10H         LINE#         299
  C:2D1AH         LINE#         300
  C:2D1FH         LINE#         302
  C:2D2AH         LINE#         303
  C:2D2AH         LINE#         306
  C:2D2AH         LINE#         307
  C:2D3BH         LINE#         308
  C:2D3EH         LINE#         309
  C:2D4FH         LINE#         310
  C:2D55H         LINE#         313
  C:2D5DH         LINE#         314
  C:2D5DH         LINE#         315
  C:2D60H         LINE#         316
  C:2D7CH         LINE#         318
  C:2D7EH         LINE#         320
  C:2D7EH         LINE#         321
  C:2D8BH         LINE#         322
  C:2D94H         LINE#         323
  C:2D99H         LINE#         324
  C:2D99H         LINE#         328
  C:2DB1H         LINE#         329
  C:2DB1H         LINE#         330
  C:2DBEH         LINE#         331
  C:2DC1H         LINE#         332
  C:2DC3H         LINE#         334
  C:2DC3H         LINE#         338
  C:2DC8H         LINE#         340
  C:2DC8H         LINE#         341
  C:2DD5H         LINE#         342
  C:2DD5H         LINE#         343
BL51 BANKED LINKER/LOCATER V6.22.2.0                                                  02/22/2021  15:08:13  PAGE 31


  C:2DD7H         LINE#         344
  C:2DDDH         LINE#         345
  C:2DDEH         LINE#         346
  C:2DDEH         LINE#         347
  C:2DE1H         LINE#         348
  C:2DE1H         LINE#         350
  C:2DE9H         LINE#         351
  C:2DE9H         LINE#         353
  C:2DEDH         LINE#         355
  C:2DFCH         LINE#         356
  C:2E0CH         LINE#         358
  C:2E12H         LINE#         360
  C:2E1AH         LINE#         361
  C:2E1AH         LINE#         362
  C:2E1DH         LINE#         363
  C:2E1DH         LINE#         364
  C:2E36H         LINE#         365
  C:2E4EH         LINE#         366
  C:2E50H         LINE#         368
  C:2E5AH         LINE#         369
  C:2E66H         LINE#         370
  C:2E66H         LINE#         371
  C:2E6CH         LINE#         372
  C:2E76H         LINE#         373
  C:2E76H         LINE#         374
  C:2E76H         LINE#         375
  C:2E7EH         LINE#         376
  C:2E7EH         LINE#         377
  C:2E86H         LINE#         378
  C:2E86H         LINE#         384
  C:2E86H         LINE#         387
  C:2E86H         LINE#         389
  -------         ENDPROC       F2_BAT
  -------         PROC          F2_POWER
  C:4931H         LINE#         394
  C:4931H         LINE#         395
  C:4931H         LINE#         397
  C:493DH         LINE#         398
  C:493DH         LINE#         399
  C:4946H         LINE#         400
  C:4946H         LINE#         401
  C:494BH         LINE#         402
  C:4951H         LINE#         403
  C:4958H         LINE#         404
  C:4962H         LINE#         405
  C:4962H         LINE#         406
  C:496AH         LINE#         407
  C:496AH         LINE#         408
  C:496EH         LINE#         409
  C:4973H         LINE#         410
  C:4975H         LINE#         411
  C:4977H         LINE#         412
  C:4979H         LINE#         413
  C:497BH         LINE#         414
  C:4980H         LINE#         415
  C:4980H         LINE#         416
  C:4983H         LINE#         417
BL51 BANKED LINKER/LOCATER V6.22.2.0                                                  02/22/2021  15:08:13  PAGE 32


  C:498BH         LINE#         418
  C:4990H         LINE#         419
  C:4993H         LINE#         420
  C:4999H         LINE#         421
  C:4999H         LINE#         423
  C:4999H         LINE#         425
  C:49A5H         LINE#         426
  C:49A5H         LINE#         427
  C:49ADH         LINE#         428
  C:49ADH         LINE#         429
  C:49AFH         LINE#         430
  C:49AFH         LINE#         431
  C:49B2H         LINE#         432
  C:49B6H         LINE#         433
  C:49B6H         LINE#         434
  C:49BEH         LINE#         435
  C:49BEH         LINE#         436
  C:49C1H         LINE#         437
  C:49C4H         LINE#         438
  C:49C4H         LINE#         439
  C:49CAH         LINE#         440
  C:49D4H         LINE#         441
  C:49D9H         LINE#         442
  C:49DBH         LINE#         443
  C:49DBH         LINE#         444
  C:49DEH         LINE#         445
  C:49DEH         LINE#         446
  C:49DEH         LINE#         447
  C:49DEH         LINE#         449
  -------         ENDPROC       F2_POWER
  -------         PROC          F2_TOUCH
  C:304CH         LINE#         466
  C:304CH         LINE#         467
  C:304CH         LINE#         468
  C:3055H         LINE#         469
  C:3055H         LINE#         470
  C:305DH         LINE#         471
  C:305DH         LINE#         472
  C:3060H         LINE#         473
  C:3060H         LINE#         474
  C:3060H         LINE#         475
  C:3069H         LINE#         476
  C:3069H         LINE#         477
  C:3071H         LINE#         478
  C:3071H         LINE#         479
  C:3074H         LINE#         480
  C:3074H         LINE#         481
  C:3089H         LINE#         482
  C:3097H         LINE#         483
  C:30A5H         LINE#         484
  C:30A5H         LINE#         485
  C:30AFH         LINE#         486
  C:30B5H         LINE#         487
  C:30B7H         LINE#         488
  C:30BAH         LINE#         489
  C:30C0H         LINE#         490
  C:30C0H         LINE#         491
BL51 BANKED LINKER/LOCATER V6.22.2.0                                                  02/22/2021  15:08:13  PAGE 33


  C:30C6H         LINE#         492
  C:30C6H         LINE#         493
  C:30D0H         LINE#         494
  C:30D5H         LINE#         495
  C:30D5H         LINE#         496
  C:30D8H         LINE#         498
  C:30D8H         LINE#         500
  C:30D8H         LINE#         501
  C:30E0H         LINE#         502
  C:30E0H         LINE#         503
  C:30E8H         LINE#         504
  C:30E8H         LINE#         505
  C:30F2H         LINE#         506
  C:30F2H         LINE#         507
  C:30F6H         LINE#         508
  C:30FBH         LINE#         509
  C:30FEH         LINE#         510
  C:30FEH         LINE#         511
  C:3109H         LINE#         512
  C:3109H         LINE#         513
  C:310EH         LINE#         514
  C:3114H         LINE#         515
  C:3119H         LINE#         516
  C:3119H         LINE#         517
  C:311EH         LINE#         518
  C:311EH         LINE#         519
  C:3120H         LINE#         520
  C:3122H         LINE#         522
  C:3125H         LINE#         523
  C:3125H         LINE#         524
  C:312CH         LINE#         525
  C:312CH         LINE#         526
  C:3130H         LINE#         527
  C:3130H         LINE#         528
  C:3132H         LINE#         530
  C:3132H         LINE#         531
  C:3137H         LINE#         532
  C:3139H         LINE#         533
  C:3139H         LINE#         534
  C:313FH         LINE#         535
  C:313FH         LINE#         539
  C:3144H         LINE#         540
  C:3144H         LINE#         541
  C:314FH         LINE#         542
  C:314FH         LINE#         543
  C:315EH         LINE#         544
  C:315EH         LINE#         545
  C:3166H         LINE#         546
  C:3166H         LINE#         547
  C:3170H         LINE#         548
  C:3170H         LINE#         549
  C:3174H         LINE#         550
  C:3179H         LINE#         551
  C:317CH         LINE#         552
  C:317CH         LINE#         553
  C:3187H         LINE#         554
  C:3187H         LINE#         555
BL51 BANKED LINKER/LOCATER V6.22.2.0                                                  02/22/2021  15:08:13  PAGE 34


  C:318CH         LINE#         556
  C:3192H         LINE#         557
  C:3192H         LINE#         558
  C:3197H         LINE#         559
  C:3197H         LINE#         560
  C:3199H         LINE#         561
  C:319BH         LINE#         563
  C:319EH         LINE#         564
  C:319EH         LINE#         565
  C:31A5H         LINE#         566
  C:31A5H         LINE#         567
  C:31AAH         LINE#         568
  C:31AAH         LINE#         569
  C:31ACH         LINE#         571
  C:31ACH         LINE#         572
  C:31B1H         LINE#         573
  C:31B3H         LINE#         574
  C:31B3H         LINE#         575
  C:31B9H         LINE#         576
  C:31B9H         LINE#         577
  C:31BBH         LINE#         578
  C:31C7H         LINE#         579
  C:31C7H         LINE#         580
  C:31CAH         LINE#         581
  C:31CCH         LINE#         583
  C:31CCH         LINE#         584
  C:31CFH         LINE#         585
  C:31CFH         LINE#         586
  C:31D6H         LINE#         587
  C:31DAH         LINE#         588
  C:31DAH         LINE#         589
  C:31FFH         LINE#         590
  C:31FFH         LINE#         591
  C:31FFH         LINE#         592
  C:3202H         LINE#         593
  C:3207H         LINE#         594
  C:320BH         LINE#         595
  C:320FH         LINE#         596
  C:320FH         LINE#         607
  -------         ENDPROC       F2_TOUCH
  -------         PROC          F2_ERROR
  -------         DO            
  D:0004H         SYMBOL        error_crash_1
  -------         ENDDO         
  C:2A83H         LINE#         613
  C:2A83H         LINE#         614
  C:2A83H         LINE#         615
  C:2A89H         LINE#         616
  C:2A8CH         LINE#         617
  C:2A91H         LINE#         618
  C:2A9AH         LINE#         619
  C:2A9EH         LINE#         621
  C:2AA0H         LINE#         622
  C:2AA9H         LINE#         623
  C:2AADH         LINE#         625
  C:2AAFH         LINE#         626
  C:2AC0H         LINE#         627
BL51 BANKED LINKER/LOCATER V6.22.2.0                                                  02/22/2021  15:08:13  PAGE 35


  C:2AC0H         LINE#         629
  C:2AC3H         LINE#         630
  C:2ACAH         LINE#         632
  C:2ACAH         LINE#         633
  C:2AD7H         LINE#         634
  C:2ADAH         LINE#         635
  C:2ADAH         LINE#         636
  C:2AE2H         LINE#         637
  C:2AE2H         LINE#         638
  C:2AE8H         LINE#         639
  C:2AEEH         LINE#         640
  C:2AF0H         LINE#         641
  C:2AF0H         LINE#         643
  C:2AF0H         LINE#         644
  C:2AF3H         LINE#         645
  C:2AF3H         LINE#         647
  C:2B07H         LINE#         648
  C:2B07H         LINE#         649
  C:2B0CH         LINE#         650
  C:2B18H         LINE#         651
  C:2B1BH         LINE#         652
  C:2B1DH         LINE#         653
  C:2B26H         LINE#         654
  C:2B26H         LINE#         655
  C:2B2CH         LINE#         656
  C:2B33H         LINE#         657
  C:2B33H         LINE#         658
  C:2B33H         LINE#         659
  C:2B36H         LINE#         660
  C:2B39H         LINE#         661
  C:2B39H         LINE#         662
  C:2B3CH         LINE#         663
  C:2B41H         LINE#         664
  C:2B41H         LINE#         666
  C:2B43H         LINE#         668
  C:2B43H         LINE#         669
  C:2B48H         LINE#         670
  C:2B4CH         LINE#         671
  C:2B4CH         LINE#         673
  C:2B54H         LINE#         674
  C:2B54H         LINE#         675
  C:2B5AH         LINE#         676
  C:2B60H         LINE#         677
  C:2B62H         LINE#         678
  C:2B62H         LINE#         679
  C:2B62H         LINE#         680
  C:2B65H         LINE#         681
  C:2B65H         LINE#         683
  C:2B71H         LINE#         684
  C:2B71H         LINE#         685
  C:2B7DH         LINE#         686
  C:2B80H         LINE#         687
  C:2B82H         LINE#         689
  C:2B87H         LINE#         690
  C:2B8FH         LINE#         691
  C:2B8FH         LINE#         692
  C:2B95H         LINE#         693
BL51 BANKED LINKER/LOCATER V6.22.2.0                                                  02/22/2021  15:08:13  PAGE 36


  C:2B98H         LINE#         694
  C:2B9DH         LINE#         695
  C:2B9DH         LINE#         696
  C:2B9DH         LINE#         697
  C:2BA0H         LINE#         698
  C:2BA0H         LINE#         700
  C:2BA8H         LINE#         701
  C:2BA8H         LINE#         702
  C:2BB8H         LINE#         703
  C:2BB8H         LINE#         704
  C:2BC4H         LINE#         705
  C:2BC4H         LINE#         706
  C:2BC6H         LINE#         707
  C:2BDEH         LINE#         708
  C:2BDEH         LINE#         709
  C:2BE6H         LINE#         710
  C:2BEBH         LINE#         712
  C:2BF0H         LINE#         713
  C:2BF2H         LINE#         715
  C:2BF8H         LINE#         717
  C:2C00H         LINE#         718
  C:2C00H         LINE#         719
  C:2C06H         LINE#         720
  C:2C09H         LINE#         721
  C:2C0EH         LINE#         722
  C:2C0EH         LINE#         723
  C:2C0EH         LINE#         724
  C:2C11H         LINE#         725
  C:2C11H         LINE#         726
  C:2C19H         LINE#         727
  C:2C19H         LINE#         728
  C:2C1DH         LINE#         730
  C:2C1DH         LINE#         732
  C:2C1DH         LINE#         739
  C:2C29H         LINE#         741
  C:2C29H         LINE#         742
  C:2C32H         LINE#         743
  C:2C35H         LINE#         744
  C:2C37H         LINE#         746
  C:2C3CH         LINE#         747
  C:2C44H         LINE#         748
  C:2C44H         LINE#         749
  C:2C4AH         LINE#         750
  C:2C4DH         LINE#         751
  C:2C53H         LINE#         752
  C:2C57H         LINE#         753
  C:2C57H         LINE#         754
  C:2C5AH         LINE#         755
  C:2C5AH         LINE#         757
  C:2C69H         LINE#         758
  C:2C69H         LINE#         759
  C:2C72H         LINE#         760
  C:2C75H         LINE#         761
  C:2C77H         LINE#         763
  C:2C7CH         LINE#         764
  C:2C84H         LINE#         765
  C:2C84H         LINE#         766
BL51 BANKED LINKER/LOCATER V6.22.2.0                                                  02/22/2021  15:08:13  PAGE 37


  C:2C8AH         LINE#         767
  C:2C8DH         LINE#         768
  C:2C93H         LINE#         769
  C:2C93H         LINE#         770
  C:2C93H         LINE#         771
  C:2C96H         LINE#         772
  C:2C96H         LINE#         773
  C:2C96H         LINE#         775
  -------         ENDPROC       F2_ERROR
  -------         PROC          F2_ZJ_MODE
  C:1E78H         LINE#         786
  C:1E78H         LINE#         787
  C:1E78H         LINE#         789
  C:1E81H         LINE#         790
  C:1E81H         LINE#         791
  C:1E97H         LINE#         792
  C:1E97H         LINE#         793
  C:1E9CH         LINE#         794
  C:1E9CH         LINE#         795
  C:1E9FH         LINE#         796
  C:1E9FH         LINE#         797
  C:1E9FH         LINE#         798
  C:1EA2H         LINE#         799
  C:1EA8H         LINE#         800
  C:1EADH         LINE#         801
  C:1EADH         LINE#         802
  C:1EB7H         LINE#         803
  C:1EB7H         LINE#         804
  C:1EB7H         LINE#         805
  C:1EBAH         LINE#         806
  C:1EBAH         LINE#         807
  C:1EBAH         LINE#         808
  C:1EBDH         LINE#         809
  C:1EC2H         LINE#         810
  C:1EC2H         LINE#         811
  C:1ECCH         LINE#         812
  C:1ED1H         LINE#         814
  C:1EDAH         LINE#         815
  C:1EDAH         LINE#         816
  C:1EE1H         LINE#         817
  C:1EE1H         LINE#         818
  C:1EEBH         LINE#         819
  C:1EF0H         LINE#         821
  C:1EF9H         LINE#         822
  C:1EF9H         LINE#         823
  C:1F00H         LINE#         824
  C:1F00H         LINE#         825
  C:1F0AH         LINE#         826
  C:1F0FH         LINE#         828
  C:1F18H         LINE#         829
  C:1F18H         LINE#         830
  C:1F18H         LINE#         831
  C:1F22H         LINE#         832
  C:1F22H         LINE#         833
  C:1F2AH         LINE#         834
  C:1F2AH         LINE#         835
  C:1F2EH         LINE#         836
BL51 BANKED LINKER/LOCATER V6.22.2.0                                                  02/22/2021  15:08:13  PAGE 38


  C:1F32H         LINE#         837
  C:1F36H         LINE#         838
  C:1F39H         LINE#         839
  C:1F3FH         LINE#         841
  C:1F44H         LINE#         842
  C:1F46H         LINE#         844
  C:1F46H         LINE#         845
  C:1F4CH         LINE#         846
  C:1F4CH         LINE#         847
  C:1F4EH         LINE#         848
  C:1F54H         LINE#         849
  C:1F54H         LINE#         850
  C:1F5AH         LINE#         851
  C:1F65H         LINE#         853
  C:1F65H         LINE#         854
  C:1F6CH         LINE#         855
  C:1F72H         LINE#         856
  C:1F7CH         LINE#         857
  C:1F7EH         LINE#         858
  C:1F7EH         LINE#         860
  C:1F7EH         LINE#         861
  C:1F7EH         LINE#         862
  C:1F8BH         LINE#         863
  C:1F8BH         LINE#         864
  C:1F90H         LINE#         865
  C:1F90H         LINE#         866
  C:1F96H         LINE#         867
  C:1F96H         LINE#         869
  C:1F96H         LINE#         870
  C:1F9BH         LINE#         871
  C:1F9EH         LINE#         872
  C:1FA3H         LINE#         873
  C:1FA3H         LINE#         874
  C:1FAFH         LINE#         875
  C:1FAFH         LINE#         876
  C:1FB8H         LINE#         877
  C:1FBBH         LINE#         878
  C:1FBDH         LINE#         880
  C:1FBDH         LINE#         881
  C:1FC2H         LINE#         882
  C:1FC5H         LINE#         883
  C:1FC5H         LINE#         884
  C:1FCAH         LINE#         885
  C:1FCFH         LINE#         887
  C:1FD8H         LINE#         888
  C:1FD8H         LINE#         889
  C:1FDFH         LINE#         890
  C:1FDFH         LINE#         891
  C:1FE5H         LINE#         892
  C:1FE5H         LINE#         893
  C:1FE5H         LINE#         894
  C:1FEAH         LINE#         895
  C:1FEDH         LINE#         896
  C:1FF2H         LINE#         897
  C:1FF2H         LINE#         898
  C:2001H         LINE#         899
  C:2001H         LINE#         900
BL51 BANKED LINKER/LOCATER V6.22.2.0                                                  02/22/2021  15:08:13  PAGE 39


  C:200AH         LINE#         901
  C:200DH         LINE#         902
  C:200FH         LINE#         904
  C:200FH         LINE#         905
  C:2014H         LINE#         906
  C:2017H         LINE#         907
  C:2017H         LINE#         908
  C:201CH         LINE#         909
  C:2021H         LINE#         911
  C:202AH         LINE#         912
  C:202AH         LINE#         913
  C:2031H         LINE#         914
  C:2031H         LINE#         915
  C:2037H         LINE#         916
  C:2037H         LINE#         917
  C:203AH         LINE#         918
  C:203AH         LINE#         919
  C:203DH         LINE#         920
  C:2042H         LINE#         922
  C:2044H         LINE#         923
  C:2044H         LINE#         924
  C:2051H         LINE#         925
  C:2051H         LINE#         926
  C:205CH         LINE#         927
  C:2061H         LINE#         929
  C:2066H         LINE#         930
  C:2068H         LINE#         932
  C:2077H         LINE#         933
  C:207CH         LINE#         935
  C:2085H         LINE#         938
  C:2085H         LINE#         939
  C:208CH         LINE#         940
  C:208CH         LINE#         941
  C:2092H         LINE#         942
  C:2092H         LINE#         943
  C:2095H         LINE#         944
  C:2095H         LINE#         945
  C:2098H         LINE#         946
  C:209DH         LINE#         947
  C:209FH         LINE#         948
  C:20A1H         LINE#         949
  C:20A3H         LINE#         950
  C:20A3H         LINE#         951
  C:20A9H         LINE#         952
  C:20AEH         LINE#         954
  C:20B7H         LINE#         955
  C:20B7H         LINE#         956
  C:20BEH         LINE#         957
  C:20BEH         LINE#         958
  C:20C4H         LINE#         959
  C:20C4H         LINE#         960
  C:20C7H         LINE#         961
  C:20C7H         LINE#         962
  C:20CAH         LINE#         963
  C:20CFH         LINE#         964
  C:20CFH         LINE#         965
  C:20CFH         LINE#         966
BL51 BANKED LINKER/LOCATER V6.22.2.0                                                  02/22/2021  15:08:13  PAGE 40


  C:20D2H         LINE#         967
  C:20D2H         LINE#         968
  C:20E1H         LINE#         969
  C:20E6H         LINE#         971
  C:20EFH         LINE#         972
  C:20EFH         LINE#         973
  C:20F6H         LINE#         974
  C:20F6H         LINE#         975
  C:20FCH         LINE#         976
  C:20FCH         LINE#         977
  C:20FFH         LINE#         978
  C:20FFH         LINE#         979
  C:2102H         LINE#         980
  C:2107H         LINE#         981
  C:2107H         LINE#         982
  C:210AH         LINE#         983
  C:210FH         LINE#         985
  C:2118H         LINE#         986
  C:2118H         LINE#         987
  C:2118H         LINE#         988
  C:2125H         LINE#         989
  C:2125H         LINE#         990
  C:212AH         LINE#         991
  C:212AH         LINE#         992
  C:2130H         LINE#         993
  C:2130H         LINE#         994
  C:2130H         LINE#         995
  C:2130H         LINE#         996
  C:2133H         LINE#         997
  C:2133H         LINE#         998
  C:2138H         LINE#         999
  C:213BH         LINE#         1000
  C:2140H         LINE#         1001
  C:2140H         LINE#         1002
  C:2152H         LINE#         1003
  C:2152H         LINE#         1004
  C:2157H         LINE#         1005
  C:215AH         LINE#         1006
  C:215CH         LINE#         1008
  C:2161H         LINE#         1009
  C:2166H         LINE#         1010
  C:216BH         LINE#         1012
  C:2174H         LINE#         1013
  C:2174H         LINE#         1014
  C:217BH         LINE#         1015
  C:217BH         LINE#         1016
  C:2181H         LINE#         1017
  C:2181H         LINE#         1018
  C:2181H         LINE#         1019
  C:2186H         LINE#         1020
  C:2189H         LINE#         1021
  C:218EH         LINE#         1022
  C:218EH         LINE#         1023
  C:21A0H         LINE#         1024
  C:21A0H         LINE#         1025
  C:21A5H         LINE#         1026
  C:21A8H         LINE#         1027
BL51 BANKED LINKER/LOCATER V6.22.2.0                                                  02/22/2021  15:08:13  PAGE 41


  C:21AAH         LINE#         1029
  C:21AFH         LINE#         1030
  C:21B4H         LINE#         1031
  C:21B9H         LINE#         1033
  C:21C2H         LINE#         1034
  C:21C2H         LINE#         1035
  C:21C9H         LINE#         1036
  C:21C9H         LINE#         1037
  C:21CFH         LINE#         1038
  C:21CFH         LINE#         1039
  C:21D1H         LINE#         1041
  C:21D3H         LINE#         1042
  C:21D3H         LINE#         1043
  C:21D8H         LINE#         1044
  C:21DBH         LINE#         1045
  C:21E0H         LINE#         1046
  C:21E0H         LINE#         1047
  C:21F4H         LINE#         1048
  C:21F4H         LINE#         1049
  C:21F9H         LINE#         1050
  C:21FCH         LINE#         1051
  C:21FCH         LINE#         1052
  C:2214H         LINE#         1053
  C:2219H         LINE#         1054
  C:2221H         LINE#         1055
  C:2227H         LINE#         1057
  C:2230H         LINE#         1058
  C:2230H         LINE#         1059
  C:2237H         LINE#         1060
  C:2237H         LINE#         1061
  C:223DH         LINE#         1062
  C:223DH         LINE#         1063
  C:223DH         LINE#         1064
  C:2242H         LINE#         1065
  C:2245H         LINE#         1066
  C:224AH         LINE#         1067
  C:224AH         LINE#         1068
  C:225EH         LINE#         1069
  C:225EH         LINE#         1070
  C:2263H         LINE#         1071
  C:2266H         LINE#         1072
  C:2266H         LINE#         1073
  C:227EH         LINE#         1074
  C:2283H         LINE#         1075
  C:228BH         LINE#         1076
  C:2291H         LINE#         1078
  C:229AH         LINE#         1079
  C:229AH         LINE#         1080
  C:229AH         LINE#         1081
  C:22ACH         LINE#         1082
  C:22ACH         LINE#         1083
  C:22B2H         LINE#         1084
  C:22B2H         LINE#         1085
  C:22B2H         LINE#         1086
  C:22B2H         LINE#         1087
  C:22B5H         LINE#         1088
  C:22B8H         LINE#         1089
BL51 BANKED LINKER/LOCATER V6.22.2.0                                                  02/22/2021  15:08:13  PAGE 42


  C:22B8H         LINE#         1090
  C:22BBH         LINE#         1091
  C:22C0H         LINE#         1092
  C:22C0H         LINE#         1093
  C:22C5H         LINE#         1094
  C:22CAH         LINE#         1096
  C:22D2H         LINE#         1097
  C:22D8H         LINE#         1098
  C:22DDH         LINE#         1099
  C:22DEH         LINE#         1100
  C:22DEH         LINE#         1102
  C:22DEH         LINE#         1104
  -------         ENDPROC       F2_ZJ_MODE
  -------         PROC          _F2_DJ_MODE
  D:0006H         SYMBOL        f2_DJ_ADC
  D:0004H         SYMBOL        f2_DJ_ADC_old
  D:0002H         SYMBOL        f2_DJ_ADC_flag
  -------         DO            
  B:0020H.6       SYMBOL        f2_DJ_mode_i
  -------         ENDDO         
  C:47CFH         LINE#         1110
  C:47CFH         LINE#         1111
  C:47CFH         LINE#         1113
  C:47E9H         LINE#         1114
  C:47E9H         LINE#         1116
  C:47EBH         LINE#         1117
  C:47EDH         LINE#         1119
  C:47EFH         LINE#         1134
  C:47FEH         LINE#         1135
  C:47FEH         LINE#         1136
  C:47FEH         LINE#         1137
  C:4801H         LINE#         1138
  C:4801H         LINE#         1139
  C:4809H         LINE#         1140
  C:4809H         LINE#         1141
  C:480BH         LINE#         1143
  C:4810H         LINE#         1144
  C:4812H         LINE#         1145
  C:4812H         LINE#         1146
  C:4815H         LINE#         1147
  C:4815H         LINE#         1148
  C:481DH         LINE#         1149
  C:481DH         LINE#         1150
  C:481FH         LINE#         1152
  C:4824H         LINE#         1153
  C:4826H         LINE#         1154
  C:4826H         LINE#         1155
  C:4829H         LINE#         1156
  C:4829H         LINE#         1157
  C:4831H         LINE#         1158
  C:4834H         LINE#         1159
  C:4836H         LINE#         1161
  C:483BH         LINE#         1162
  C:483BH         LINE#         1163
  C:483BH         LINE#         1165
  C:4843H         LINE#         1166
  C:484CH         LINE#         1168
BL51 BANKED LINKER/LOCATER V6.22.2.0                                                  02/22/2021  15:08:13  PAGE 43


  C:4853H         LINE#         1169
  C:485BH         LINE#         1170
  C:4864H         LINE#         1172
  C:486BH         LINE#         1173
  C:4873H         LINE#         1174
  C:487BH         LINE#         1176
  C:4882H         LINE#         1178
  -------         ENDPROC       _F2_DJ_MODE
  -------         PROC          F2_LEDSHOW
  C:3520H         LINE#         1184
  C:3520H         LINE#         1185
  C:3520H         LINE#         1186
  C:352FH         LINE#         1187
  C:352FH         LINE#         1188
  C:353BH         LINE#         1189
  C:3553H         LINE#         1190
  C:3553H         LINE#         1191
  C:3555H         LINE#         1192
  C:3557H         LINE#         1193
  C:3558H         LINE#         1195
  C:3558H         LINE#         1196
  C:355AH         LINE#         1197
  C:355CH         LINE#         1198
  C:355CH         LINE#         1199
  C:355DH         LINE#         1201
  C:355DH         LINE#         1202
  C:3563H         LINE#         1203
  C:356DH         LINE#         1204
  C:356DH         LINE#         1205
  C:3571H         LINE#         1206
  C:357AH         LINE#         1207
  C:357FH         LINE#         1208
  C:3583H         LINE#         1209
  C:3587H         LINE#         1210
  C:358BH         LINE#         1211
  C:358FH         LINE#         1212
  C:3593H         LINE#         1213
  C:3597H         LINE#         1214
  C:3597H         LINE#         1215
  C:35A3H         LINE#         1216
  C:35A3H         LINE#         1217
  C:35ABH         LINE#         1218
  C:35AFH         LINE#         1220
  C:35B4H         LINE#         1221
  C:35B4H         LINE#         1222
  C:35C0H         LINE#         1223
  C:35C0H         LINE#         1224
  C:35D3H         LINE#         1225
  C:35D7H         LINE#         1227
  C:35DCH         LINE#         1228
  C:35DCH         LINE#         1229
  C:35E8H         LINE#         1230
  C:35E8H         LINE#         1231
  C:35F0H         LINE#         1232
  C:35F4H         LINE#         1234
  C:35F9H         LINE#         1235
  C:35F9H         LINE#         1236
BL51 BANKED LINKER/LOCATER V6.22.2.0                                                  02/22/2021  15:08:13  PAGE 44


  C:35FEH         LINE#         1237
  C:35FEH         LINE#         1238
  C:3606H         LINE#         1239
  C:3606H         LINE#         1240
  C:360EH         LINE#         1241
  C:360EH         LINE#         1242
  C:3618H         LINE#         1243
  C:361EH         LINE#         1244
  C:361EH         LINE#         1245
  C:362AH         LINE#         1246
  C:362AH         LINE#         1247
  C:362FH         LINE#         1248
  C:3636H         LINE#         1250
  C:363CH         LINE#         1252
  C:363CH         LINE#         1253
  C:3641H         LINE#         1254
  C:3641H         LINE#         1255
  C:3648H         LINE#         1256
  C:3648H         LINE#         1258
  C:3651H         LINE#         1259
  C:3651H         LINE#         1260
  C:3655H         LINE#         1261
  C:3661H         LINE#         1262
  C:3667H         LINE#         1264
  C:3667H         LINE#         1265
  C:366CH         LINE#         1266
  C:3673H         LINE#         1268
  C:367BH         LINE#         1269
  C:367BH         LINE#         1270
  C:367BH         LINE#         1271
  C:3683H         LINE#         1272
  C:3684H         LINE#         1273
  C:3684H         LINE#         1275
  -------         ENDPROC       F2_LEDSHOW
  -------         PROC          F2_ERROR_BUZZER
  C:3A77H         LINE#         1277
  C:3A77H         LINE#         1278
  C:3A77H         LINE#         1280
  C:3A7FH         LINE#         1281
  C:3A7FH         LINE#         1283
  C:3A89H         LINE#         1284
  C:3A89H         LINE#         1285
  C:3A89H         LINE#         1286
  C:3A89H         LINE#         1287
  C:3A8CH         LINE#         1288
  C:3A92H         LINE#         1289
  C:3A92H         LINE#         1290
  C:3A9CH         LINE#         1291
  C:3A9CH         LINE#         1292
  C:3A9CH         LINE#         1293
  C:3A9FH         LINE#         1294
  C:3A9FH         LINE#         1295
  C:3AA7H         LINE#         1296
  C:3AA7H         LINE#         1297
  C:3AADH         LINE#         1298
  C:3AADH         LINE#         1299
  C:3AB3H         LINE#         1300
BL51 BANKED LINKER/LOCATER V6.22.2.0                                                  02/22/2021  15:08:13  PAGE 45


  C:3AB3H         LINE#         1301
  C:3AB3H         LINE#         1302
  C:3AB6H         LINE#         1303
  C:3AB6H         LINE#         1304
  C:3ABCH         LINE#         1305
  C:3ABCH         LINE#         1306
  C:3ABCH         LINE#         1307
  C:3ABFH         LINE#         1308
  C:3ABFH         LINE#         1309
  C:3AC7H         LINE#         1310
  C:3AC7H         LINE#         1311
  C:3ACFH         LINE#         1312
  C:3ACFH         LINE#         1313
  C:3AD5H         LINE#         1314
  C:3AD5H         LINE#         1315
  C:3AD5H         LINE#         1316
  C:3AD8H         LINE#         1317
  C:3AD8H         LINE#         1318
  C:3ADEH         LINE#         1319
  C:3ADEH         LINE#         1320
  C:3ADEH         LINE#         1321
  C:3AE1H         LINE#         1322
  C:3AE1H         LINE#         1323
  C:3AE7H         LINE#         1324
  C:3AE7H         LINE#         1325
  C:3AE7H         LINE#         1326
  C:3AEAH         LINE#         1327
  C:3AEAH         LINE#         1328
  C:3AF2H         LINE#         1329
  C:3AF2H         LINE#         1330
  C:3AFDH         LINE#         1331
  C:3AFDH         LINE#         1332
  C:3B08H         LINE#         1333
  C:3B08H         LINE#         1334
  C:3B08H         LINE#         1335
  C:3B0BH         LINE#         1336
  C:3B0BH         LINE#         1337
  C:3B11H         LINE#         1338
  C:3B11H         LINE#         1339
  C:3B11H         LINE#         1340
  C:3B14H         LINE#         1341
  C:3B14H         LINE#         1342
  C:3B1AH         LINE#         1343
  C:3B1AH         LINE#         1344
  C:3B1AH         LINE#         1345
  C:3B1DH         LINE#         1346
  C:3B1DH         LINE#         1347
  C:3B23H         LINE#         1348
  C:3B23H         LINE#         1349
  C:3B23H         LINE#         1350
  C:3B26H         LINE#         1351
  C:3B26H         LINE#         1352
  C:3B2CH         LINE#         1353
  C:3B2CH         LINE#         1354
  C:3B2CH         LINE#         1355
  C:3B2FH         LINE#         1356
  C:3B2FH         LINE#         1357
BL51 BANKED LINKER/LOCATER V6.22.2.0                                                  02/22/2021  15:08:13  PAGE 46


  C:3B37H         LINE#         1358
  C:3B37H         LINE#         1359
  C:3B45H         LINE#         1360
  C:3B45H         LINE#         1361
  C:3B4BH         LINE#         1362
  C:3B4BH         LINE#         1363
  C:3B4BH         LINE#         1364
  C:3B4EH         LINE#         1365
  C:3B4EH         LINE#         1366
  C:3B54H         LINE#         1367
  C:3B54H         LINE#         1368
  C:3B54H         LINE#         1369
  C:3B57H         LINE#         1370
  C:3B57H         LINE#         1371
  C:3B5DH         LINE#         1372
  C:3B5DH         LINE#         1373
  C:3B5DH         LINE#         1374
  C:3B60H         LINE#         1375
  C:3B60H         LINE#         1376
  C:3B68H         LINE#         1377
  C:3B68H         LINE#         1378
  C:3B70H         LINE#         1379
  C:3B70H         LINE#         1380
  C:3B7EH         LINE#         1381
  C:3B7EH         LINE#         1382
  C:3B80H         LINE#         1383
  C:3B83H         LINE#         1384
  C:3B83H         LINE#         1385
  C:3B8BH         LINE#         1386
  C:3B8BH         LINE#         1387
  C:3B8BH         LINE#         1388
  C:3B97H         LINE#         1389
  C:3B9EH         LINE#         1390
  C:3B9EH         LINE#         1393
  -------         ENDPROC       F2_ERROR_BUZZER
  -------         PROC          _F2_GRLED
  D:0006H         SYMBOL        G
  D:0004H         SYMBOL        R
  C:5326H         LINE#         1396
  C:5326H         LINE#         1397
  C:5326H         LINE#         1398
  C:532CH         LINE#         1399
  C:5330H         LINE#         1401
  C:5332H         LINE#         1402
  C:5338H         LINE#         1403
  C:533BH         LINE#         1405
  C:533DH         LINE#         1406
  -------         ENDPROC       _F2_GRLED
  -------         PROC          F2_BUZZER
  C:52F3H         LINE#         1411
  C:52F3H         LINE#         1412
  C:52F3H         LINE#         1414
  C:52F9H         LINE#         1415
  C:52F9H         LINE#         1416
  C:52FFH         LINE#         1417
  C:5302H         LINE#         1418
  C:5305H         LINE#         1420
BL51 BANKED LINKER/LOCATER V6.22.2.0                                                  02/22/2021  15:08:13  PAGE 47


  C:5305H         LINE#         1421
  C:5307H         LINE#         1422
  C:530CH         LINE#         1423
  C:530CH         LINE#         1424
  C:530CH         LINE#         1425
  -------         ENDPROC       F2_BUZZER
  -------         PROC          _F2_GET_ADC
  D:0006H         SYMBOL        adc_flag
  C:4A86H         LINE#         1427
  C:4A86H         LINE#         1428
  C:4A86H         LINE#         1429
  C:4A91H         LINE#         1430
  C:4A91H         LINE#         1431
  C:4AA0H         LINE#         1432
  C:4AAFH         LINE#         1433
  C:4ABEH         LINE#         1434
  C:4ACDH         LINE#         1435
  C:4ADCH         LINE#         1436
  C:4AEBH         LINE#         1437
  C:4AFAH         LINE#         1438
  C:4B09H         LINE#         1440
  C:4B0FH         LINE#         1441
  C:4B0FH         LINE#         1442
  C:4B12H         LINE#         1443
  C:4B15H         LINE#         1444
  C:4B15H         LINE#         1446
  C:4B19H         LINE#         1447
  C:4B19H         LINE#         1448
  C:4B1CH         LINE#         1449
  C:4B1CH         LINE#         1450
  C:4B1CH         LINE#         1451
  C:4B21H         LINE#         1452
  C:4B24H         LINE#         1453
  C:4B27H         LINE#         1454
  C:4B2AH         LINE#         1456
  C:4B2AH         LINE#         1457
  -------         ENDPROC       _F2_GET_ADC
  -------         PROC          _BUBBLESORT
  D:0001H         SYMBOL        src
  D:0004H         SYMBOL        n
  -------         DO            
  X:0331H         SYMBOL        i
  X:0333H         SYMBOL        j
  X:0335H         SYMBOL        tmp
  -------         ENDDO         
  C:3F8DH         LINE#         1460
  C:3F8DH         LINE#         1461
  C:3F8DH         LINE#         1462
  C:3F9CH         LINE#         1463
  C:3FBEH         LINE#         1464
  C:3FE2H         LINE#         1465
  C:3FFBH         LINE#         1466
  C:4014H         LINE#         1467
  C:4027H         LINE#         1468
  C:404DH         LINE#         1469
  C:404DH         LINE#         1470
  C:4061H         LINE#         1471
BL51 BANKED LINKER/LOCATER V6.22.2.0                                                  02/22/2021  15:08:13  PAGE 48


  C:4072H         LINE#         1472
  -------         ENDPROC       _BUBBLESORT
  -------         PROC          ADC_RPT
  C:530DH         LINE#         1475
  C:5313H         LINE#         1477
  C:5319H         LINE#         1478
  C:531CH         LINE#         1479
  C:531FH         LINE#         1482
  -------         ENDPROC       ADC_RPT
  -------         ENDMOD        TASK2

  -------         MODULE        TASK3
  C:0000H         SYMBOL        _ICE_DUMMY_
  D:0080H         PUBLIC        P0
  D:0090H         PUBLIC        P1
  X:02F7H         PUBLIC        pwm_L
  D:00A0H         PUBLIC        P2
  X:02F9H         PUBLIC        sum_L
  C:3210H         PUBLIC        _advance_L
  D:00B0H         PUBLIC        P3
  X:02FBH         PUBLIC        num_R
  C:4E23H         PUBLIC        INT8_17_Rpt
  C:4CC8H         PUBLIC        P2INT_Rpt
  D:00E7H         PUBLIC        PWM0DTH
  X:02FCH         PUBLIC        pwm_R
  D:00EFH         PUBLIC        PWM1DTH
  X:02FEH         PUBLIC        sum_R
  C:339DH         PUBLIC        _advance_R
  D:00F7H         PUBLIC        PWM2DTH
  D:00E1H         PUBLIC        PWMEN
  D:00E6H         PUBLIC        PWM0DTL
  D:00EEH         PUBLIC        PWM1DTL
  D:00F6H         PUBLIC        PWM2DTL
  D:00A8H         PUBLIC        IE
  X:0300H         PUBLIC        count_sum_L
  C:4E8FH         PUBLIC        _back
  D:00F8H         PUBLIC        RSTFR
  X:0302H         PUBLIC        f3_flag
  X:0304H         PUBLIC        count_sum_R
  B:00B0H.3       PUBLIC        P3_3
  B:0090H.5       PUBLIC        P1_5
  X:0306H         PUBLIC        f3_count
  X:0308H         PUBLIC        run_stop_flag_L
  X:0309H         PUBLIC        num_L1
  X:030AH         PUBLIC        run_stop_flag_R
  X:030BH         PUBLIC        num_L2
  D:00E5H         PUBLIC        PWM0DH
  D:00EDH         PUBLIC        PWM1DH
  D:00F5H         PUBLIC        PWM2DH
  D:0098H         PUBLIC        SCON
  X:030DH         PUBLIC        num_R1
  D:0088H         PUBLIC        TCON
  D:009FH         PUBLIC        PINTF2
  X:030EH         PUBLIC        num_R2
  D:00E4H         PUBLIC        PWM0DL
  D:00ECH         PUBLIC        PWM1DL
  D:00F4H         PUBLIC        PWM2DL
BL51 BANKED LINKER/LOCATER V6.22.2.0                                                  02/22/2021  15:08:13  PAGE 49


  D:00E3H         PUBLIC        PWM0PH
  X:0310H         PUBLIC        f3_crash1
  D:00EBH         PUBLIC        PWM1PH
  D:00B8H         PUBLIC        IE1
  D:00F3H         PUBLIC        PWM2PH
  D:00D8H         PUBLIC        IE2
  X:0312H         PUBLIC        count_sum1_L
  X:0314H         PUBLIC        count_sum2_L
  C:5178H         PUBLIC        f3_stop
  D:00E2H         PUBLIC        PWM0PL
  X:0316H         PUBLIC        count_sum3_L
  D:00EAH         PUBLIC        PWM1PL
  D:00F2H         PUBLIC        PWM2PL
  B:0020H.3       PUBLIC        f3_flag0
  X:0318H         PUBLIC        f3_flag1
  X:0319H         PUBLIC        count_sum1_R
  C:4FADH         PUBLIC        _?Task3
  X:031BH         PUBLIC        count_sum2_R
  X:031DH         PUBLIC        f3_flag3
  X:031EH         PUBLIC        count_sum3_R
  X:0320H         PUBLIC        f3_flag4
  B:0020H.4       PUBLIC        fan_open
  X:0322H         PUBLIC        f3_flag5
  C:0096H         PUBLIC        f3_run
  C:4073H         PUBLIC        f3_run_ZJ
  C:4D48H         PUBLIC        f3_run_first
  C:52BDH         PUBLIC        reset_pwm
  C:4156H         PUBLIC        f3_run_WIFI
  X:0323H         PUBLIC        count_L_1
  X:0325H         PUBLIC        count_L_2
  X:0327H         PUBLIC        count_R_1
  C:5275H         SYMBOL        initialize_pwm
  X:0329H         PUBLIC        f3_fengji
  X:032DH         PUBLIC        count_R_2
  D:00D0H         PUBLIC        PSW
  X:032FH         PUBLIC        run_stop_flag
  X:0330H         PUBLIC        num_L
  C:25E3H         SYMBOL        Com01B0
  C:25E3H         SYMBOL        L?0433
  C:25E3H         SYMBOL        L?0434
  C:25EAH         SYMBOL        L?0435
  C:25F3H         SYMBOL        L?0436
  C:25F3H         SYMBOL        L?0437
  C:25F4H         SYMBOL        L?0438
  C:25F7H         SYMBOL        L?0439
  C:25FEH         SYMBOL        L?0449
  C:25FEH         SYMBOL        L?0450
  C:2605H         SYMBOL        L?0451
  C:260CH         SYMBOL        L?0453
  C:260CH         SYMBOL        L?0454
  C:260EH         SYMBOL        L?0455
  C:2612H         SYMBOL        L?0456
  C:2619H         SYMBOL        L?0458
  C:2619H         SYMBOL        L?0459
  C:261AH         SYMBOL        L?0460
  C:261CH         SYMBOL        L?0461
  C:2623H         SYMBOL        L?0465
BL51 BANKED LINKER/LOCATER V6.22.2.0                                                  02/22/2021  15:08:13  PAGE 50


  C:2623H         SYMBOL        L?0466
  C:262AH         SYMBOL        L?0467
  C:262AH         SYMBOL        L?0468
  C:2631H         SYMBOL        L?0471
  C:2631H         SYMBOL        L?0472
  C:2638H         SYMBOL        L?0473
  C:2638H         SYMBOL        L?0474
  C:2639H         SYMBOL        L?0475
  C:2641H         SYMBOL        L?0476
  C:2660H         SYMBOL        L?0477
  C:2668H         SYMBOL        L?0478
  C:2668H         SYMBOL        L?0479
  C:266BH         SYMBOL        L?0480
  C:2672H         SYMBOL        L?0482
  C:2675H         SYMBOL        L?0483
  C:267BH         SYMBOL        L?0484
  C:2684H         SYMBOL        L?0487
  C:2684H         SYMBOL        L?0488
  C:268BH         SYMBOL        L?0489
  C:2694H         SYMBOL        L?0492
  C:2694H         SYMBOL        L?0493
  C:269BH         SYMBOL        L?0497
  C:26BCH         SYMBOL        L?0499
  C:26C7H         SYMBOL        L?0500
  C:26D0H         SYMBOL        L?0501
  C:26D0H         SYMBOL        L?0502
  C:26DCH         SYMBOL        L?0503
  C:26DEH         SYMBOL        L?0504
  C:26E9H         SYMBOL        L?0505
  C:26E9H         SYMBOL        L?0506
  C:26F8H         SYMBOL        L?0508
  C:26F8H         SYMBOL        L?0509
  C:2703H         SYMBOL        L?0510
  C:270CH         SYMBOL        L?0511
  C:2714H         SYMBOL        L?0512
  C:271CH         SYMBOL        L?0513
  C:2724H         SYMBOL        L?0514
  C:2724H         SYMBOL        L?0515
  C:272BH         SYMBOL        L?0516
  C:2741H         SYMBOL        L?0521
  C:2741H         SYMBOL        L?0522
  C:274DH         SYMBOL        L?0523
  C:274DH         SYMBOL        L?0524
  C:2758H         SYMBOL        L?0525
  C:276AH         SYMBOL        L?0526
  C:276BH         SYMBOL        L?0527
  C:2773H         SYMBOL        L?0528
  C:2774H         SYMBOL        L?0529
  C:277CH         SYMBOL        L?0530
  C:277DH         SYMBOL        L?0531
  C:2785H         SYMBOL        L?0532
  C:2786H         SYMBOL        L?0533
  C:278EH         SYMBOL        L?0534
  C:278EH         SYMBOL        L?0535
  C:2796H         SYMBOL        L?0536
  C:27A6H         SYMBOL        L?0537
  C:27B6H         SYMBOL        L?0539
BL51 BANKED LINKER/LOCATER V6.22.2.0                                                  02/22/2021  15:08:13  PAGE 51


  C:27B9H         SYMBOL        L?0540
  C:27C1H         SYMBOL        L?0541
  C:27C3H         SYMBOL        L?0542
  C:27CAH         SYMBOL        L?0544
  C:27D8H         SYMBOL        L?0545
  C:27E6H         SYMBOL        L?0546
  C:27F4H         SYMBOL        L?0548
  C:27F4H         SYMBOL        L?0549
  C:27FBH         SYMBOL        L?0550
  C:27FBH         SYMBOL        L?0551
  C:2802H         SYMBOL        L?0552
  C:280EH         SYMBOL        L?0553
  C:280EH         SYMBOL        L?0554
  C:2816H         SYMBOL        L?0555
  C:2822H         SYMBOL        L?0558
  C:282DH         SYMBOL        L?0559
  C:2838H         SYMBOL        L?0560
  C:2842H         SYMBOL        L?0561
  C:2842H         SYMBOL        L?0562
  C:2849H         SYMBOL        L?0563
  -------         PROC          COM01B0
  -------         ENDPROC       COM01B0
  -------         PROC          _?TASK3
  x:0000H         SYMBOL        ppdata
  C:4FADH         LINE#         57
  C:4FBBH         LINE#         59
  C:4FBEH         LINE#         61
  C:4FD9H         LINE#         62
  C:4FE3H         LINE#         63
  C:4FE3H         LINE#         65
  C:4FE6H         LINE#         67
  C:4FE9H         LINE#         70
  C:4FECH         LINE#         73
  C:4FEFH         LINE#         75
  C:4FF2H         LINE#         78
  C:4FFBH         LINE#         82
  -------         ENDPROC       _?TASK3
  C:0CBBH         SYMBOL        L?0419
  C:0CDCH         SYMBOL        L?0420
  C:0D03H         SYMBOL        L?0421
  C:0D24H         SYMBOL        L?0422
  C:0D45H         SYMBOL        L?0423
  C:0D6DH         SYMBOL        L?0424
  C:0D94H         SYMBOL        L?0425
  C:0DACH         SYMBOL        L?0426
  C:0DCDH         SYMBOL        L?0427
  C:0DEBH         SYMBOL        L?0428
  C:0E0AH         SYMBOL        L?0429
  C:0E23H         SYMBOL        L?0430
  C:0E4BH         SYMBOL        L?0431
  C:0E67H         SYMBOL        L?0440
  C:0E7DH         SYMBOL        L?0441
  C:0E99H         SYMBOL        L?0442
  C:0EB2H         SYMBOL        L?0443
  C:0ECAH         SYMBOL        L?0444
  C:0EE0H         SYMBOL        L?0445
  C:0EFCH         SYMBOL        L?0446
BL51 BANKED LINKER/LOCATER V6.22.2.0                                                  02/22/2021  15:08:13  PAGE 52


  C:0F10H         SYMBOL        L?0447
  C:0F29H         SYMBOL        L?0448
  C:0F40H         SYMBOL        L?0452
  C:0F57H         SYMBOL        L?0457
  C:0F6BH         SYMBOL        L?0462
  C:0F84H         SYMBOL        L?0463
  C:0FA6H         SYMBOL        L?0464
  C:0FB6H         SYMBOL        L?0469
  C:0FCDH         SYMBOL        L?0470
  C:0FE9H         SYMBOL        L?0481
  C:1002H         SYMBOL        L?0486
  C:1018H         SYMBOL        L?0490
  C:1022H         SYMBOL        L?0491
  C:1032H         SYMBOL        L?0494
  C:103CH         SYMBOL        L?0495
  C:104EH         SYMBOL        L?0496
  C:1058H         SYMBOL        L?0498
  C:106FH         SYMBOL        L?0507
  C:1079H         SYMBOL        L?0519
  C:1083H         SYMBOL        L?0543
  C:1092H         SYMBOL        L?0547
  C:109CH         SYMBOL        L?0556
  C:10A8H         SYMBOL        L?0557
  C:10B4H         SYMBOL        L?0564
  -------         PROC          F3_RUN
  C:0096H         LINE#         86
  C:0096H         LINE#         87
  C:0096H         LINE#         106
  C:00A0H         LINE#         107
  C:00A0H         LINE#         108
  C:00A6H         LINE#         109
  C:00A6H         LINE#         110
  C:00A6H         LINE#         111
  C:00A6H         LINE#         112
  C:00A6H         LINE#         113
  C:00A6H         LINE#         114
  C:00A9H         LINE#         115
  C:00B2H         LINE#         116
  C:00B2H         LINE#         117
  C:00BAH         LINE#         118
  C:00BEH         LINE#         119
  C:00BEH         LINE#         120
  C:00C4H         LINE#         121
  C:00CAH         LINE#         122
  C:00CCH         LINE#         124
  C:00CCH         LINE#         125
  C:00CCH         LINE#         126
  C:00D1H         LINE#         127
  C:00D1H         LINE#         128
  C:00D6H         LINE#         129
  C:00D6H         LINE#         130
  C:00D6H         LINE#         131
  C:00DCH         LINE#         132
  C:00DCH         LINE#         133
  C:00DCH         LINE#         135
  C:00E8H         LINE#         136
  C:00E8H         LINE#         137
BL51 BANKED LINKER/LOCATER V6.22.2.0                                                  02/22/2021  15:08:13  PAGE 53


  C:00EEH         LINE#         138
  C:00EEH         LINE#         139
  C:00EEH         LINE#         140
  C:00EEH         LINE#         141
  C:00EEH         LINE#         142
  C:00EEH         LINE#         143
  C:00EEH         LINE#         144
  C:00F1H         LINE#         145
  C:00F1H         LINE#         147
  C:00F6H         LINE#         148
  C:00F6H         LINE#         149
  C:0102H         LINE#         150
  C:0102H         LINE#         151
  C:0108H         LINE#         152
  C:0108H         LINE#         153
  C:0108H         LINE#         154
  C:0108H         LINE#         155
  C:0108H         LINE#         156
  C:0108H         LINE#         157
  C:0108H         LINE#         158
  C:0108H         LINE#         159
  C:010BH         LINE#         160
  C:010BH         LINE#         161
  C:0113H         LINE#         162
  C:011CH         LINE#         163
  C:011CH         LINE#         164
  C:011CH         LINE#         165
  C:0122H         LINE#         166
  C:0122H         LINE#         167
  C:0130H         LINE#         168
  C:0130H         LINE#         169
  C:0130H         LINE#         170
  C:0136H         LINE#         171
  C:0136H         LINE#         172
  C:0136H         LINE#         173
  C:0142H         LINE#         174
  C:0142H         LINE#         175
  C:0148H         LINE#         176
  C:0148H         LINE#         177
  C:0148H         LINE#         178
  C:0148H         LINE#         179
  C:0148H         LINE#         180
  C:0148H         LINE#         181
  C:0148H         LINE#         182
  C:014BH         LINE#         183
  C:014BH         LINE#         184
  C:0153H         LINE#         185
  C:0156H         LINE#         186
  C:0156H         LINE#         187
  C:0156H         LINE#         188
  C:015CH         LINE#         189
  C:015EH         LINE#         191
  C:015EH         LINE#         192
  C:0161H         LINE#         193
  C:0161H         LINE#         194
  C:0164H         LINE#         195
  C:0164H         LINE#         196
BL51 BANKED LINKER/LOCATER V6.22.2.0                                                  02/22/2021  15:08:13  PAGE 54


  C:016CH         LINE#         197
  C:016CH         LINE#         198
  C:016CH         LINE#         199
  C:0172H         LINE#         200
  C:0172H         LINE#         201
  C:0172H         LINE#         202
  C:017EH         LINE#         203
  C:017EH         LINE#         204
  C:0184H         LINE#         205
  C:0184H         LINE#         206
  C:0184H         LINE#         207
  C:0184H         LINE#         208
  C:0184H         LINE#         209
  C:0184H         LINE#         210
  C:0184H         LINE#         211
  C:0184H         LINE#         212
  C:0187H         LINE#         213
  C:0187H         LINE#         214
  C:018FH         LINE#         215
  C:0198H         LINE#         216
  C:0198H         LINE#         217
  C:0198H         LINE#         218
  C:019EH         LINE#         219
  C:019EH         LINE#         220
  C:01ACH         LINE#         221
  C:01ACH         LINE#         222
  C:01ACH         LINE#         223
  C:01B2H         LINE#         224
  C:01B2H         LINE#         225
  C:01B2H         LINE#         226
  C:01BEH         LINE#         227
  C:01BEH         LINE#         228
  C:01C4H         LINE#         229
  C:01C4H         LINE#         230
  C:01C4H         LINE#         231
  C:01C4H         LINE#         232
  C:01C4H         LINE#         233
  C:01C4H         LINE#         234
  C:01C4H         LINE#         235
  C:01C7H         LINE#         236
  C:01C7H         LINE#         237
  C:01CFH         LINE#         238
  C:01D2H         LINE#         239
  C:01D2H         LINE#         240
  C:01D8H         LINE#         241
  C:01DEH         LINE#         242
  C:01E0H         LINE#         244
  C:01E0H         LINE#         245
  C:01E5H         LINE#         246
  C:01E8H         LINE#         247
  C:01E8H         LINE#         248
  C:01EDH         LINE#         249
  C:01EDH         LINE#         250
  C:01EDH         LINE#         251
  C:01F3H         LINE#         252
  C:01F3H         LINE#         253
  C:01F3H         LINE#         254
BL51 BANKED LINKER/LOCATER V6.22.2.0                                                  02/22/2021  15:08:13  PAGE 55


  C:01FFH         LINE#         255
  C:01FFH         LINE#         256
  C:0205H         LINE#         257
  C:0205H         LINE#         258
  C:0205H         LINE#         259
  C:0205H         LINE#         260
  C:0205H         LINE#         261
  C:0205H         LINE#         262
  C:0205H         LINE#         263
  C:0208H         LINE#         264
  C:0208H         LINE#         266
  C:020DH         LINE#         267
  C:020DH         LINE#         268
  C:0219H         LINE#         269
  C:0219H         LINE#         270
  C:021FH         LINE#         271
  C:021FH         LINE#         272
  C:021FH         LINE#         273
  C:021FH         LINE#         274
  C:021FH         LINE#         275
  C:021FH         LINE#         276
  C:021FH         LINE#         277
  C:021FH         LINE#         278
  C:0222H         LINE#         279
  C:0222H         LINE#         281
  C:022BH         LINE#         282
  C:022BH         LINE#         283
  C:0230H         LINE#         284
  C:0233H         LINE#         285
  C:0233H         LINE#         286
  C:0241H         LINE#         287
  C:0241H         LINE#         288
  C:0241H         LINE#         289
  C:0247H         LINE#         290
  C:0247H         LINE#         291
  C:0247H         LINE#         292
  C:0253H         LINE#         293
  C:0253H         LINE#         294
  C:0259H         LINE#         295
  C:0259H         LINE#         296
  C:0259H         LINE#         297
  C:0259H         LINE#         298
  C:0259H         LINE#         299
  C:0259H         LINE#         300
  C:0259H         LINE#         301
  C:025CH         LINE#         302
  C:025CH         LINE#         303
  C:0264H         LINE#         304
  C:0267H         LINE#         305
  C:0267H         LINE#         306
  C:0267H         LINE#         307
  C:026DH         LINE#         308
  C:026FH         LINE#         310
  C:026FH         LINE#         311
  C:0274H         LINE#         312
  C:0274H         LINE#         313
  C:0277H         LINE#         314
BL51 BANKED LINKER/LOCATER V6.22.2.0                                                  02/22/2021  15:08:13  PAGE 56


  C:0277H         LINE#         315
  C:027FH         LINE#         316
  C:027FH         LINE#         317
  C:027FH         LINE#         318
  C:0285H         LINE#         319
  C:0285H         LINE#         320
  C:0285H         LINE#         321
  C:0291H         LINE#         322
  C:0291H         LINE#         323
  C:0297H         LINE#         324
  C:0297H         LINE#         325
  C:0297H         LINE#         326
  C:0297H         LINE#         327
  C:0297H         LINE#         328
  C:0297H         LINE#         329
  C:0297H         LINE#         330
  C:0297H         LINE#         331
  C:029AH         LINE#         332
  C:029AH         LINE#         333
  C:02A2H         LINE#         334
  C:02ABH         LINE#         335
  C:02ABH         LINE#         336
  C:02ABH         LINE#         337
  C:02AEH         LINE#         338
  C:02AEH         LINE#         339
  C:02BCH         LINE#         340
  C:02BCH         LINE#         341
  C:02BCH         LINE#         342
  C:02C0H         LINE#         343
  C:02C0H         LINE#         344
  C:02C0H         LINE#         346
  C:02CCH         LINE#         347
  C:02CCH         LINE#         348
  C:02D2H         LINE#         349
  C:02D2H         LINE#         350
  C:02D2H         LINE#         351
  C:02D2H         LINE#         352
  C:02D2H         LINE#         353
  C:02D2H         LINE#         354
  C:02D2H         LINE#         355
  C:02D2H         LINE#         356
  C:02D5H         LINE#         357
  C:02D5H         LINE#         358
  C:02DDH         LINE#         359
  C:02E6H         LINE#         360
  C:02E6H         LINE#         361
  C:02E6H         LINE#         362
  C:02ECH         LINE#         363
  C:02ECH         LINE#         364
  C:02FAH         LINE#         365
  C:02FAH         LINE#         366
  C:02FAH         LINE#         367
  C:0300H         LINE#         368
  C:0300H         LINE#         369
  C:0300H         LINE#         371
  C:030CH         LINE#         372
  C:030CH         LINE#         373
BL51 BANKED LINKER/LOCATER V6.22.2.0                                                  02/22/2021  15:08:13  PAGE 57


  C:0312H         LINE#         374
  C:0312H         LINE#         375
  C:0312H         LINE#         376
  C:0312H         LINE#         377
  C:0312H         LINE#         378
  C:0312H         LINE#         379
  C:0312H         LINE#         380
  C:0312H         LINE#         381
  C:0315H         LINE#         382
  C:0315H         LINE#         383
  C:031DH         LINE#         384
  C:0326H         LINE#         385
  C:0326H         LINE#         386
  C:0326H         LINE#         387
  C:0329H         LINE#         388
  C:0329H         LINE#         389
  C:0337H         LINE#         390
  C:0337H         LINE#         391
  C:0337H         LINE#         392
  C:033DH         LINE#         393
  C:033DH         LINE#         395
  C:033DH         LINE#         405
  C:0349H         LINE#         406
  C:0349H         LINE#         407
  C:034FH         LINE#         408
  C:034FH         LINE#         409
  C:034FH         LINE#         410
  C:034FH         LINE#         411
  C:034FH         LINE#         412
  C:0352H         LINE#         413
  C:0352H         LINE#         414
  C:0352H         LINE#         415
  C:0352H         LINE#         416
  C:0358H         LINE#         417
  C:035BH         LINE#         418
  C:035BH         LINE#         419
  C:035EH         LINE#         420
  C:035EH         LINE#         421
  C:0368H         LINE#         422
  C:0368H         LINE#         423
  C:0368H         LINE#         424
  C:036EH         LINE#         425
  C:036EH         LINE#         426
  C:036EH         LINE#         427
  C:037AH         LINE#         428
  C:037AH         LINE#         429
  C:0380H         LINE#         430
  C:0380H         LINE#         431
  C:0380H         LINE#         432
  C:0380H         LINE#         433
  C:0380H         LINE#         434
  C:0383H         LINE#         435
  C:0383H         LINE#         436
  C:038BH         LINE#         437
  C:0397H         LINE#         438
  C:0397H         LINE#         439
  C:039FH         LINE#         440
BL51 BANKED LINKER/LOCATER V6.22.2.0                                                  02/22/2021  15:08:13  PAGE 58


  C:03A5H         LINE#         441
  C:03A7H         LINE#         443
  C:03A7H         LINE#         444
  C:03ACH         LINE#         445
  C:03AFH         LINE#         446
  C:03AFH         LINE#         447
  C:03B2H         LINE#         448
  C:03B2H         LINE#         449
  C:03B7H         LINE#         450
  C:03BAH         LINE#         451
  C:03BAH         LINE#         452
  C:03BAH         LINE#         453
  C:03C6H         LINE#         454
  C:03C6H         LINE#         455
  C:03CCH         LINE#         456
  C:03CCH         LINE#         457
  C:03CCH         LINE#         458
  C:03CCH         LINE#         459
  C:03CCH         LINE#         460
  C:03CFH         LINE#         461
  C:03D2H         LINE#         462
  C:03D2H         LINE#         463
  C:03DAH         LINE#         464
  C:03DFH         LINE#         465
  C:03DFH         LINE#         466
  C:03E5H         LINE#         467
  C:03F1H         LINE#         468
  C:03F3H         LINE#         470
  C:03F3H         LINE#         471
  C:03F8H         LINE#         472
  C:03FBH         LINE#         473
  C:03FBH         LINE#         474
  C:03FEH         LINE#         475
  C:03FEH         LINE#         476
  C:0403H         LINE#         477
  C:0406H         LINE#         478
  C:0406H         LINE#         479
  C:040BH         LINE#         480
  C:040BH         LINE#         481
  C:040CH         LINE#         482
  C:0411H         LINE#         483
  C:0414H         LINE#         484
  C:0418H         LINE#         485
  C:0418H         LINE#         486
  C:0418H         LINE#         488
  C:0424H         LINE#         489
  C:0424H         LINE#         490
  C:042AH         LINE#         491
  C:042AH         LINE#         492
  C:042AH         LINE#         493
  C:042AH         LINE#         494
  C:042AH         LINE#         495
  C:042DH         LINE#         496
  C:042DH         LINE#         497
  C:0435H         LINE#         498
  C:0438H         LINE#         499
  C:0438H         LINE#         500
BL51 BANKED LINKER/LOCATER V6.22.2.0                                                  02/22/2021  15:08:13  PAGE 59


  C:0438H         LINE#         501
  C:043BH         LINE#         502
  C:043DH         LINE#         504
  C:043DH         LINE#         505
  C:0442H         LINE#         506
  C:0445H         LINE#         507
  C:0445H         LINE#         508
  C:0451H         LINE#         509
  C:0451H         LINE#         510
  C:0451H         LINE#         511
  C:0455H         LINE#         512
  C:0455H         LINE#         513
  C:0455H         LINE#         514
  C:0461H         LINE#         515
  C:0461H         LINE#         516
  C:0467H         LINE#         517
  C:0467H         LINE#         518
  C:0467H         LINE#         519
  C:0467H         LINE#         520
  C:0467H         LINE#         521
  C:046AH         LINE#         522
  C:046AH         LINE#         523
  C:0472H         LINE#         524
  C:0475H         LINE#         525
  C:0475H         LINE#         526
  C:047AH         LINE#         527
  C:047DH         LINE#         528
  C:047FH         LINE#         530
  C:047FH         LINE#         531
  C:0480H         LINE#         532
  C:0483H         LINE#         533
  C:0483H         LINE#         534
  C:048FH         LINE#         535
  C:048FH         LINE#         536
  C:0494H         LINE#         537
  C:0497H         LINE#         538
  C:0497H         LINE#         539
  C:0497H         LINE#         540
  C:04A3H         LINE#         541
  C:04A3H         LINE#         542
  C:04A9H         LINE#         543
  C:04A9H         LINE#         544
  C:04A9H         LINE#         545
  C:04A9H         LINE#         546
  C:04A9H         LINE#         547
  C:04A9H         LINE#         548
  C:04ACH         LINE#         549
  C:04ACH         LINE#         550
  C:04B4H         LINE#         551
  C:04B7H         LINE#         552
  C:04B7H         LINE#         553
  C:04B7H         LINE#         554
  C:04BAH         LINE#         555
  C:04BCH         LINE#         557
  C:04BCH         LINE#         558
  C:04C1H         LINE#         559
  C:04C4H         LINE#         560
BL51 BANKED LINKER/LOCATER V6.22.2.0                                                  02/22/2021  15:08:13  PAGE 60


  C:04C4H         LINE#         561
  C:04D0H         LINE#         562
  C:04D0H         LINE#         563
  C:04D5H         LINE#         564
  C:04D8H         LINE#         565
  C:04D8H         LINE#         566
  C:04E0H         LINE#         567
  C:04E0H         LINE#         568
  C:04E0H         LINE#         569
  C:04E4H         LINE#         570
  C:04E8H         LINE#         572
  C:04E8H         LINE#         573
  C:04E8H         LINE#         574
  C:04F4H         LINE#         575
  C:04F4H         LINE#         576
  C:04FAH         LINE#         577
  C:04FAH         LINE#         578
  C:04FAH         LINE#         579
  C:04FAH         LINE#         580
  C:04FAH         LINE#         581
  C:04FDH         LINE#         582
  C:04FDH         LINE#         583
  C:0502H         LINE#         584
  C:0502H         LINE#         594
  C:050EH         LINE#         595
  C:050EH         LINE#         596
  C:0514H         LINE#         597
  C:0514H         LINE#         598
  C:0514H         LINE#         599
  C:0514H         LINE#         600
  C:0514H         LINE#         601
  C:0517H         LINE#         602
  C:0517H         LINE#         603
  C:0517H         LINE#         604
  C:0517H         LINE#         605
  C:051DH         LINE#         606
  C:0520H         LINE#         607
  C:0520H         LINE#         608
  C:0523H         LINE#         609
  C:0523H         LINE#         610
  C:052DH         LINE#         611
  C:052DH         LINE#         612
  C:052DH         LINE#         613
  C:0533H         LINE#         614
  C:0533H         LINE#         615
  C:0533H         LINE#         616
  C:053FH         LINE#         617
  C:053FH         LINE#         618
  C:0545H         LINE#         619
  C:0545H         LINE#         620
  C:0545H         LINE#         621
  C:0545H         LINE#         622
  C:0545H         LINE#         623
  C:0548H         LINE#         624
  C:0548H         LINE#         625
  C:0550H         LINE#         626
  C:055CH         LINE#         627
BL51 BANKED LINKER/LOCATER V6.22.2.0                                                  02/22/2021  15:08:13  PAGE 61


  C:055CH         LINE#         628
  C:0562H         LINE#         629
  C:056EH         LINE#         630
  C:0570H         LINE#         632
  C:0570H         LINE#         633
  C:0575H         LINE#         634
  C:0578H         LINE#         635
  C:0578H         LINE#         636
  C:057BH         LINE#         637
  C:057BH         LINE#         638
  C:0580H         LINE#         639
  C:0583H         LINE#         640
  C:0583H         LINE#         641
  C:0583H         LINE#         645
  C:058FH         LINE#         646
  C:058FH         LINE#         647
  C:0595H         LINE#         648
  C:0595H         LINE#         649
  C:0595H         LINE#         650
  C:0595H         LINE#         651
  C:0595H         LINE#         652
  C:0598H         LINE#         653
  C:059BH         LINE#         654
  C:059BH         LINE#         655
  C:05A3H         LINE#         656
  C:05A8H         LINE#         657
  C:05A8H         LINE#         658
  C:05B4H         LINE#         659
  C:05BAH         LINE#         660
  C:05BCH         LINE#         662
  C:05BCH         LINE#         663
  C:05C1H         LINE#         664
  C:05C4H         LINE#         665
  C:05C4H         LINE#         666
  C:05C7H         LINE#         667
  C:05C7H         LINE#         668
  C:05CCH         LINE#         669
  C:05CFH         LINE#         670
  C:05CFH         LINE#         671
  C:05D4H         LINE#         672
  C:05D4H         LINE#         673
  C:05D5H         LINE#         674
  C:05DAH         LINE#         675
  C:05DDH         LINE#         676
  C:05E1H         LINE#         677
  C:05E1H         LINE#         679
  C:05E1H         LINE#         681
  C:05EDH         LINE#         682
  C:05EDH         LINE#         683
  C:05F3H         LINE#         684
  C:05F3H         LINE#         685
  C:05F3H         LINE#         686
  C:05F3H         LINE#         687
  C:05F3H         LINE#         688
  C:05F6H         LINE#         689
  C:05F6H         LINE#         690
  C:05FEH         LINE#         691
BL51 BANKED LINKER/LOCATER V6.22.2.0                                                  02/22/2021  15:08:13  PAGE 62


  C:0601H         LINE#         692
  C:0601H         LINE#         693
  C:0601H         LINE#         694
  C:0607H         LINE#         695
  C:0609H         LINE#         697
  C:0609H         LINE#         698
  C:060EH         LINE#         699
  C:0611H         LINE#         700
  C:0611H         LINE#         701
  C:061DH         LINE#         702
  C:061DH         LINE#         703
  C:0622H         LINE#         704
  C:0625H         LINE#         705
  C:0625H         LINE#         706
  C:0625H         LINE#         709
  C:0631H         LINE#         710
  C:0631H         LINE#         711
  C:0637H         LINE#         712
  C:0637H         LINE#         713
  C:0637H         LINE#         714
  C:0637H         LINE#         715
  C:0637H         LINE#         716
  C:063AH         LINE#         717
  C:063AH         LINE#         718
  C:0642H         LINE#         719
  C:0645H         LINE#         720
  C:0645H         LINE#         721
  C:064AH         LINE#         722
  C:064DH         LINE#         723
  C:064FH         LINE#         725
  C:064FH         LINE#         726
  C:0655H         LINE#         727
  C:065BH         LINE#         728
  C:065BH         LINE#         729
  C:0667H         LINE#         730
  C:0667H         LINE#         731
  C:066CH         LINE#         732
  C:066FH         LINE#         733
  C:066FH         LINE#         734
  C:066FH         LINE#         736
  C:067BH         LINE#         737
  C:067BH         LINE#         738
  C:0681H         LINE#         739
  C:0681H         LINE#         740
  C:0681H         LINE#         741
  C:0681H         LINE#         742
  C:0681H         LINE#         743
  C:0681H         LINE#         744
  C:0684H         LINE#         745
  C:0684H         LINE#         746
  C:068CH         LINE#         747
  C:068FH         LINE#         748
  C:068FH         LINE#         749
  C:068FH         LINE#         750
  C:0695H         LINE#         751
  C:0697H         LINE#         753
  C:0697H         LINE#         754
BL51 BANKED LINKER/LOCATER V6.22.2.0                                                  02/22/2021  15:08:13  PAGE 63


  C:069CH         LINE#         755
  C:069FH         LINE#         756
  C:069FH         LINE#         757
  C:06ABH         LINE#         758
  C:06ABH         LINE#         759
  C:06B0H         LINE#         760
  C:06B3H         LINE#         761
  C:06B3H         LINE#         762
  C:06BBH         LINE#         763
  C:06BBH         LINE#         764
  C:06BBH         LINE#         765
  C:06C0H         LINE#         766
  C:06C3H         LINE#         768
  C:06C3H         LINE#         769
  C:06C3H         LINE#         770
  C:06CFH         LINE#         771
  C:06CFH         LINE#         772
  C:06D5H         LINE#         773
  C:06D5H         LINE#         774
  C:06D5H         LINE#         775
  C:06D5H         LINE#         776
  C:06D5H         LINE#         777
  C:06D8H         LINE#         778
  C:06D8H         LINE#         779
  C:06DDH         LINE#         780
  C:06DDH         LINE#         786
  C:06E9H         LINE#         787
  C:06E9H         LINE#         788
  C:06EFH         LINE#         789
  C:06EFH         LINE#         790
  C:06EFH         LINE#         791
  C:06EFH         LINE#         792
  C:06EFH         LINE#         793
  C:06EFH         LINE#         794
  C:06EFH         LINE#         795
  C:06F2H         LINE#         796
  C:06F2H         LINE#         797
  C:06FAH         LINE#         798
  C:06FEH         LINE#         799
  C:06FEH         LINE#         801
  C:0704H         LINE#         802
  C:070AH         LINE#         803
  C:070CH         LINE#         805
  C:070CH         LINE#         806
  C:070CH         LINE#         807
  C:0712H         LINE#         808
  C:0712H         LINE#         809
  C:0717H         LINE#         810
  C:0717H         LINE#         811
  C:0717H         LINE#         812
  C:071DH         LINE#         813
  C:071DH         LINE#         814
  C:071DH         LINE#         817
  C:0729H         LINE#         818
  C:0729H         LINE#         819
  C:072FH         LINE#         820
  C:072FH         LINE#         821
BL51 BANKED LINKER/LOCATER V6.22.2.0                                                  02/22/2021  15:08:13  PAGE 64


  C:072FH         LINE#         822
  C:072FH         LINE#         823
  C:072FH         LINE#         824
  C:072FH         LINE#         825
  C:0732H         LINE#         826
  C:0735H         LINE#         827
  C:0735H         LINE#         829
  C:073AH         LINE#         830
  C:073AH         LINE#         833
  C:0746H         LINE#         834
  C:0746H         LINE#         835
  C:074CH         LINE#         836
  C:074CH         LINE#         837
  C:074CH         LINE#         838
  C:074CH         LINE#         839
  C:074CH         LINE#         840
  C:074CH         LINE#         841
  C:074CH         LINE#         842
  C:074FH         LINE#         843
  C:074FH         LINE#         844
  C:0757H         LINE#         845
  C:0760H         LINE#         846
  C:0760H         LINE#         847
  C:0760H         LINE#         848
  C:0763H         LINE#         849
  C:0763H         LINE#         850
  C:0771H         LINE#         851
  C:0771H         LINE#         852
  C:0771H         LINE#         853
  C:0777H         LINE#         854
  C:0777H         LINE#         856
  C:0777H         LINE#         857
  C:0783H         LINE#         858
  C:0783H         LINE#         859
  C:0789H         LINE#         860
  C:0789H         LINE#         861
  C:0789H         LINE#         862
  C:0789H         LINE#         863
  C:0789H         LINE#         864
  C:0789H         LINE#         865
  C:0789H         LINE#         866
  C:078CH         LINE#         867
  C:078CH         LINE#         868
  C:0794H         LINE#         869
  C:0797H         LINE#         870
  C:0797H         LINE#         871
  C:0797H         LINE#         872
  C:079DH         LINE#         873
  C:079FH         LINE#         875
  C:079FH         LINE#         876
  C:07A4H         LINE#         877
  C:07A4H         LINE#         878
  C:07A7H         LINE#         879
  C:07A7H         LINE#         880
  C:07AFH         LINE#         881
  C:07AFH         LINE#         882
  C:07AFH         LINE#         883
BL51 BANKED LINKER/LOCATER V6.22.2.0                                                  02/22/2021  15:08:13  PAGE 65


  C:07B5H         LINE#         884
  C:07B5H         LINE#         885
  C:07B5H         LINE#         886
  C:07C1H         LINE#         887
  C:07C1H         LINE#         888
  C:07C7H         LINE#         889
  C:07C7H         LINE#         890
  C:07CBH         LINE#         891
  C:07CFH         LINE#         892
  C:07D4H         LINE#         893
  C:07D5H         LINE#         894
  C:07D5H         LINE#         895
  C:07D8H         LINE#         896
  C:07DBH         LINE#         897
  C:07DBH         LINE#         898
  C:07E3H         LINE#         899
  C:07ECH         LINE#         900
  C:07ECH         LINE#         901
  C:07ECH         LINE#         902
  C:07EFH         LINE#         903
  C:07EFH         LINE#         904
  C:07FDH         LINE#         905
  C:07FDH         LINE#         906
  C:07FDH         LINE#         907
  C:0803H         LINE#         908
  C:0803H         LINE#         909
  C:0803H         LINE#         910
  C:080FH         LINE#         911
  C:080FH         LINE#         912
  C:0815H         LINE#         913
  C:0815H         LINE#         914
  C:0815H         LINE#         915
  C:0815H         LINE#         916
  C:0815H         LINE#         917
  C:0815H         LINE#         918
  C:0815H         LINE#         919
  C:0818H         LINE#         920
  C:0818H         LINE#         921
  C:0820H         LINE#         922
  C:0823H         LINE#         923
  C:0823H         LINE#         924
  C:0829H         LINE#         925
  C:082FH         LINE#         926
  C:0831H         LINE#         928
  C:0831H         LINE#         929
  C:0836H         LINE#         930
  C:0839H         LINE#         931
  C:0839H         LINE#         932
  C:083EH         LINE#         933
  C:083EH         LINE#         934
  C:083EH         LINE#         935
  C:0844H         LINE#         936
  C:0844H         LINE#         937
  C:0844H         LINE#         938
  C:0850H         LINE#         939
  C:0850H         LINE#         940
  C:0856H         LINE#         941
BL51 BANKED LINKER/LOCATER V6.22.2.0                                                  02/22/2021  15:08:13  PAGE 66


  C:0856H         LINE#         942
  C:0856H         LINE#         943
  C:0856H         LINE#         944
  C:0856H         LINE#         945
  C:0856H         LINE#         946
  C:0859H         LINE#         947
  C:085CH         LINE#         948
  C:085CH         LINE#         950
  C:0861H         LINE#         951
  C:0861H         LINE#         952
  C:086DH         LINE#         953
  C:086DH         LINE#         954
  C:0873H         LINE#         955
  C:0873H         LINE#         956
  C:0873H         LINE#         957
  C:0873H         LINE#         958
  C:0873H         LINE#         959
  C:0873H         LINE#         960
  C:0873H         LINE#         961
  C:0876H         LINE#         962
  C:0879H         LINE#         963
  C:0879H         LINE#         964
  C:0881H         LINE#         965
  C:088AH         LINE#         966
  C:088AH         LINE#         967
  C:088AH         LINE#         968
  C:0890H         LINE#         969
  C:0890H         LINE#         970
  C:089EH         LINE#         971
  C:089EH         LINE#         972
  C:089EH         LINE#         973
  C:08A4H         LINE#         974
  C:08A4H         LINE#         975
  C:08A4H         LINE#         976
  C:08B0H         LINE#         977
  C:08B0H         LINE#         978
  C:08B6H         LINE#         979
  C:08B6H         LINE#         980
  C:08B6H         LINE#         981
  C:08B6H         LINE#         982
  C:08B6H         LINE#         983
  C:08B6H         LINE#         984
  C:08B9H         LINE#         985
  C:08BCH         LINE#         986
  C:08BCH         LINE#         987
  C:08C4H         LINE#         988
  C:08C7H         LINE#         989
  C:08C7H         LINE#         990
  C:08C7H         LINE#         991
  C:08CDH         LINE#         992
  C:08CFH         LINE#         994
  C:08CFH         LINE#         995
  C:08D2H         LINE#         996
  C:08D2H         LINE#         997
  C:08D5H         LINE#         998
  C:08D5H         LINE#         999
  C:08DDH         LINE#         1000
BL51 BANKED LINKER/LOCATER V6.22.2.0                                                  02/22/2021  15:08:13  PAGE 67


  C:08DDH         LINE#         1001
  C:08DDH         LINE#         1002
  C:08E3H         LINE#         1003
  C:08E3H         LINE#         1004
  C:08E3H         LINE#         1005
  C:08EFH         LINE#         1006
  C:08EFH         LINE#         1007
  C:08F5H         LINE#         1008
  C:08F5H         LINE#         1009
  C:08F9H         LINE#         1010
  C:08FEH         LINE#         1011
  C:0903H         LINE#         1012
  C:0903H         LINE#         1013
  C:0903H         LINE#         1014
  C:0906H         LINE#         1015
  C:0909H         LINE#         1016
  C:0909H         LINE#         1017
  C:0911H         LINE#         1018
  C:091AH         LINE#         1019
  C:091AH         LINE#         1020
  C:091AH         LINE#         1021
  C:0922H         LINE#         1022
  C:0922H         LINE#         1023
  C:0930H         LINE#         1024
  C:0930H         LINE#         1025
  C:0930H         LINE#         1026
  C:0936H         LINE#         1027
  C:0936H         LINE#         1028
  C:0936H         LINE#         1033
  C:0942H         LINE#         1034
  C:0942H         LINE#         1035
  C:0948H         LINE#         1036
  C:0948H         LINE#         1037
  C:0948H         LINE#         1038
  C:0948H         LINE#         1039
  C:0948H         LINE#         1040
  C:0948H         LINE#         1041
  C:0948H         LINE#         1042
  C:0948H         LINE#         1043
  C:094BH         LINE#         1044
  C:094BH         LINE#         1045
  C:0953H         LINE#         1046
  C:095CH         LINE#         1047
  C:095CH         LINE#         1048
  C:0964H         LINE#         1049
  C:0967H         LINE#         1050
  C:0967H         LINE#         1051
  C:0975H         LINE#         1052
  C:0975H         LINE#         1053
  C:0975H         LINE#         1054
  C:097BH         LINE#         1055
  C:097BH         LINE#         1056
  C:097BH         LINE#         1058
  C:0987H         LINE#         1059
  C:0987H         LINE#         1060
  C:098DH         LINE#         1061
  C:098DH         LINE#         1062
BL51 BANKED LINKER/LOCATER V6.22.2.0                                                  02/22/2021  15:08:13  PAGE 68


  C:098DH         LINE#         1063
  C:098DH         LINE#         1064
  C:098DH         LINE#         1065
  C:098DH         LINE#         1066
  C:098DH         LINE#         1067
  C:098DH         LINE#         1068
  C:0990H         LINE#         1069
  C:0990H         LINE#         1070
  C:0998H         LINE#         1071
  C:09A1H         LINE#         1072
  C:09A1H         LINE#         1073
  C:09A1H         LINE#         1074
  C:09A9H         LINE#         1075
  C:09A9H         LINE#         1076
  C:09B7H         LINE#         1077
  C:09B7H         LINE#         1078
  C:09B7H         LINE#         1079
  C:09BDH         LINE#         1080
  C:09BDH         LINE#         1082
  C:09BDH         LINE#         1092
  C:09C9H         LINE#         1093
  C:09C9H         LINE#         1094
  C:09CFH         LINE#         1095
  C:09CFH         LINE#         1096
  C:09CFH         LINE#         1097
  C:09CFH         LINE#         1098
  C:09D2H         LINE#         1099
  C:09D2H         LINE#         1100
  C:09DAH         LINE#         1101
  C:09DEH         LINE#         1102
  C:09DEH         LINE#         1103
  C:09DEH         LINE#         1104
  C:09E1H         LINE#         1105
  C:09E3H         LINE#         1107
  C:09E3H         LINE#         1108
  C:09E3H         LINE#         1109
  C:09E9H         LINE#         1111
  C:09E9H         LINE#         1112
  C:09EEH         LINE#         1113
  C:09EEH         LINE#         1114
  C:09EEH         LINE#         1115
  C:09F4H         LINE#         1116
  C:09F4H         LINE#         1118
  C:09F4H         LINE#         1120
  C:0A00H         LINE#         1121
  C:0A00H         LINE#         1122
  C:0A06H         LINE#         1123
  C:0A06H         LINE#         1124
  C:0A0EH         LINE#         1125
  C:0A11H         LINE#         1126
  C:0A14H         LINE#         1127
  C:0A14H         LINE#         1128
  C:0A17H         LINE#         1129
  C:0A1AH         LINE#         1130
  C:0A1AH         LINE#         1131
  C:0A1DH         LINE#         1132
  C:0A1DH         LINE#         1133
BL51 BANKED LINKER/LOCATER V6.22.2.0                                                  02/22/2021  15:08:13  PAGE 69


  C:0A25H         LINE#         1134
  C:0A25H         LINE#         1135
  C:0A2BH         LINE#         1136
  C:0A31H         LINE#         1137
  C:0A31H         LINE#         1138
  C:0A3BH         LINE#         1139
  C:0A3BH         LINE#         1140
  C:0A3BH         LINE#         1141
  C:0A41H         LINE#         1142
  C:0A41H         LINE#         1143
  C:0A41H         LINE#         1144
  C:0A50H         LINE#         1145
  C:0A50H         LINE#         1146
  C:0A56H         LINE#         1147
  C:0A56H         LINE#         1148
  C:0A59H         LINE#         1149
  C:0A5CH         LINE#         1150
  C:0A5FH         LINE#         1151
  C:0A64H         LINE#         1152
  C:0A64H         LINE#         1154
  C:0A67H         LINE#         1155
  C:0A67H         LINE#         1156
  C:0A6DH         LINE#         1157
  C:0A70H         LINE#         1159
  C:0A70H         LINE#         1160
  C:0A7FH         LINE#         1161
  C:0A7FH         LINE#         1167
  C:0A85H         LINE#         1168
  C:0A8BH         LINE#         1169
  C:0A8BH         LINE#         1170
  C:0A98H         LINE#         1171
  C:0A98H         LINE#         1177
  C:0A9DH         LINE#         1178
  C:0AA3H         LINE#         1179
  C:0AA3H         LINE#         1180
  C:0AB0H         LINE#         1181
  C:0AB0H         LINE#         1187
  C:0AB7H         LINE#         1188
  C:0ABDH         LINE#         1189
  C:0ABDH         LINE#         1190
  C:0ACAH         LINE#         1191
  C:0ACAH         LINE#         1197
  C:0ACDH         LINE#         1198
  C:0AD3H         LINE#         1199
  C:0AD3H         LINE#         1200
  C:0AE5H         LINE#         1201
  C:0AE5H         LINE#         1207
  C:0AE8H         LINE#         1208
  C:0AEEH         LINE#         1209
  C:0AEEH         LINE#         1211
  C:0AFFH         LINE#         1212
  C:0AFFH         LINE#         1217
  C:0AFFH         LINE#         1218
  C:0B05H         LINE#         1219
  C:0B05H         LINE#         1220
  C:0B05H         LINE#         1221
  C:0B13H         LINE#         1222
BL51 BANKED LINKER/LOCATER V6.22.2.0                                                  02/22/2021  15:08:13  PAGE 70


  C:0B13H         LINE#         1223
  C:0B1FH         LINE#         1224
  C:0B1FH         LINE#         1225
  C:0B25H         LINE#         1226
  C:0B25H         LINE#         1227
  C:0B25H         LINE#         1228
  C:0B28H         LINE#         1229
  C:0B2BH         LINE#         1230
  C:0B2BH         LINE#         1231
  C:0B2EH         LINE#         1232
  C:0B31H         LINE#         1233
  C:0B34H         LINE#         1234
  C:0B3CH         LINE#         1235
  C:0B3CH         LINE#         1236
  C:0B42H         LINE#         1237
  C:0B48H         LINE#         1238
  C:0B4AH         LINE#         1240
  C:0B4AH         LINE#         1241
  C:0B4FH         LINE#         1242
  C:0B52H         LINE#         1243
  C:0B52H         LINE#         1244
  C:0B52H         LINE#         1245
  C:0B5EH         LINE#         1246
  C:0B5EH         LINE#         1247
  C:0B64H         LINE#         1248
  C:0B64H         LINE#         1249
  C:0B64H         LINE#         1250
  C:0B64H         LINE#         1251
  C:0B67H         LINE#         1252
  C:0B67H         LINE#         1253
  C:0B6FH         LINE#         1254
  C:0B73H         LINE#         1255
  C:0B73H         LINE#         1256
  C:0B79H         LINE#         1257
  C:0B7FH         LINE#         1258
  C:0B81H         LINE#         1260
  C:0B81H         LINE#         1261
  C:0B81H         LINE#         1262
  C:0B87H         LINE#         1264
  C:0B87H         LINE#         1265
  C:0B8CH         LINE#         1266
  C:0B8CH         LINE#         1267
  C:0B8CH         LINE#         1268
  C:0B92H         LINE#         1269
  C:0B92H         LINE#         1270
  C:0B92H         LINE#         1271
  C:0B9EH         LINE#         1272
  C:0B9EH         LINE#         1273
  C:0BA4H         LINE#         1274
  C:0BA4H         LINE#         1275
  C:0BA4H         LINE#         1276
  C:0BA7H         LINE#         1277
  C:0BAAH         LINE#         1278
  C:0BAAH         LINE#         1279
  C:0BADH         LINE#         1280
  C:0BB0H         LINE#         1281
  C:0BB0H         LINE#         1282
BL51 BANKED LINKER/LOCATER V6.22.2.0                                                  02/22/2021  15:08:13  PAGE 71


  C:0BB3H         LINE#         1283
  C:0BB3H         LINE#         1284
  C:0BBBH         LINE#         1285
  C:0BBBH         LINE#         1286
  C:0BC1H         LINE#         1287
  C:0BC7H         LINE#         1288
  C:0BC7H         LINE#         1289
  C:0BD1H         LINE#         1290
  C:0BD1H         LINE#         1291
  C:0BD1H         LINE#         1292
  C:0BD7H         LINE#         1293
  C:0BD7H         LINE#         1294
  C:0BD7H         LINE#         1295
  C:0BE6H         LINE#         1296
  C:0BE6H         LINE#         1297
  C:0BECH         LINE#         1298
  C:0BECH         LINE#         1299
  C:0BEFH         LINE#         1300
  C:0BF2H         LINE#         1301
  C:0BF5H         LINE#         1302
  C:0BF5H         LINE#         1304
  C:0BF8H         LINE#         1305
  C:0BF8H         LINE#         1306
  C:0BF8H         LINE#         1307
  C:0BFBH         LINE#         1308
  C:0BFBH         LINE#         1309
  C:0BFBH         LINE#         1310
  C:0BFEH         LINE#         1313
  C:0BFFH         LINE#         1315
  C:0BFFH         LINE#         1316
  C:0C0EH         LINE#         1317
  C:0C0EH         LINE#         1318
  C:0C14H         LINE#         1319
  C:0C1AH         LINE#         1320
  C:0C1AH         LINE#         1321
  C:0C27H         LINE#         1322
  C:0C27H         LINE#         1323
  C:0C2CH         LINE#         1324
  C:0C32H         LINE#         1325
  C:0C32H         LINE#         1326
  C:0C3FH         LINE#         1327
  C:0C3FH         LINE#         1328
  C:0C49H         LINE#         1329
  C:0C4FH         LINE#         1330
  C:0C4FH         LINE#         1331
  C:0C5CH         LINE#         1332
  C:0C5CH         LINE#         1333
  C:0C69H         LINE#         1334
  C:0C6FH         LINE#         1335
  C:0C6FH         LINE#         1336
  C:0C82H         LINE#         1337
  C:0C82H         LINE#         1338
  C:0C8FH         LINE#         1339
  C:0C95H         LINE#         1340
  C:0C95H         LINE#         1341
  C:0CA6H         LINE#         1342
  C:0CA6H         LINE#         1343
BL51 BANKED LINKER/LOCATER V6.22.2.0                                                  02/22/2021  15:08:13  PAGE 72


  C:0CA6H         LINE#         1344
  C:0CA9H         LINE#         1345
  C:0CA9H         LINE#         1346
  C:0CA9H         LINE#         1347
  C:0CACH         LINE#         1349
  C:0CACH         LINE#         1350
  C:0CBAH         LINE#         1351
  C:0CBAH         LINE#         1352
  C:0CBAH         LINE#         1364
  -------         ENDPROC       F3_RUN
  -------         PROC          _BACK
  X:0331H         SYMBOL        back_flag
  X:0333H         SYMBOL        back_flag2
  C:4E8FH         LINE#         1369
  C:4E95H         LINE#         1370
  C:4E95H         LINE#         1371
  C:4E9DH         LINE#         1372
  C:4E9DH         LINE#         1373
  C:4EA0H         LINE#         1374
  C:4EA3H         LINE#         1375
  C:4EA9H         LINE#         1377
  C:4EA9H         LINE#         1378
  C:4EACH         LINE#         1379
  C:4EACH         LINE#         1381
  C:4EAFH         LINE#         1382
  C:4EAFH         LINE#         1383
  C:4EC0H         LINE#         1384
  C:4EC0H         LINE#         1386
  C:4EC6H         LINE#         1387
  C:4ECCH         LINE#         1388
  C:4EDAH         LINE#         1389
  C:4EDAH         LINE#         1390
  C:4EE4H         LINE#         1391
  C:4EE4H         LINE#         1392
  C:4EF2H         LINE#         1393
  C:4EF5H         LINE#         1394
  C:4EF5H         LINE#         1396
  -------         ENDPROC       _BACK
  -------         PROC          F3_STOP
  C:5178H         LINE#         1405
  C:5178H         LINE#         1406
  C:5178H         LINE#         1407
  C:5184H         LINE#         1408
  C:5184H         LINE#         1409
  C:518AH         LINE#         1410
  C:518AH         LINE#         1411
  C:5192H         LINE#         1412
  C:5192H         LINE#         1413
  C:5192H         LINE#         1414
  C:5192H         LINE#         1415
  C:5195H         LINE#         1416
  C:5195H         LINE#         1417
  C:519FH         LINE#         1418
  C:51A3H         LINE#         1419
  C:51A6H         LINE#         1420
  C:51A9H         LINE#         1421
  C:51A9H         LINE#         1422
BL51 BANKED LINKER/LOCATER V6.22.2.0                                                  02/22/2021  15:08:13  PAGE 73


  C:51A9H         LINE#         1423
  -------         ENDPROC       F3_STOP
  C:421FH         SYMBOL        L?0520
  C:4229H         SYMBOL        L?0538
  -------         PROC          F3_RUN_WIFI
  C:4156H         LINE#         1427
  C:4156H         LINE#         1428
  C:4156H         LINE#         1430
  C:4162H         LINE#         1431
  C:4162H         LINE#         1432
  C:4168H         LINE#         1433
  C:4168H         LINE#         1434
  C:4168H         LINE#         1436
  C:4168H         LINE#         1437
  C:416BH         LINE#         1438
  C:416EH         LINE#         1439
  C:416EH         LINE#         1441
  C:4171H         LINE#         1442
  C:4171H         LINE#         1443
  C:4177H         LINE#         1444
  C:417DH         LINE#         1445
  C:417FH         LINE#         1447
  C:417FH         LINE#         1448
  C:417FH         LINE#         1449
  C:417FH         LINE#         1450
  C:417FH         LINE#         1451
  C:4182H         LINE#         1452
  C:4182H         LINE#         1453
  C:4185H         LINE#         1454
  C:4185H         LINE#         1455
  C:4185H         LINE#         1456
  C:4191H         LINE#         1457
  C:4191H         LINE#         1458
  C:4197H         LINE#         1459
  C:4197H         LINE#         1460
  C:4197H         LINE#         1462
  C:4197H         LINE#         1463
  C:419AH         LINE#         1464
  C:419DH         LINE#         1465
  C:419DH         LINE#         1466
  C:41A0H         LINE#         1467
  C:41A0H         LINE#         1468
  C:41A6H         LINE#         1469
  C:41ACH         LINE#         1470
  C:41AEH         LINE#         1472
  C:41AEH         LINE#         1473
  C:41AEH         LINE#         1474
  C:41AEH         LINE#         1475
  C:41AEH         LINE#         1476
  C:41B1H         LINE#         1477
  C:41B1H         LINE#         1478
  C:41B4H         LINE#         1479
  C:41B4H         LINE#         1480
  C:41B4H         LINE#         1481
  C:41C0H         LINE#         1482
  C:41C0H         LINE#         1483
  C:41C6H         LINE#         1484
BL51 BANKED LINKER/LOCATER V6.22.2.0                                                  02/22/2021  15:08:13  PAGE 74


  C:41C6H         LINE#         1485
  C:41C8H         LINE#         1487
  C:41CAH         LINE#         1488
  C:41CDH         LINE#         1489
  C:41D0H         LINE#         1490
  C:41D0H         LINE#         1491
  C:41D3H         LINE#         1492
  C:41D3H         LINE#         1494
  C:41D9H         LINE#         1495
  C:41DFH         LINE#         1496
  C:41E1H         LINE#         1498
  C:41E1H         LINE#         1499
  C:41E1H         LINE#         1500
  C:41E1H         LINE#         1501
  C:41E4H         LINE#         1502
  C:41E7H         LINE#         1503
  C:41E7H         LINE#         1504
  C:41EAH         LINE#         1505
  C:41EAH         LINE#         1506
  C:41EAH         LINE#         1507
  C:41F6H         LINE#         1508
  C:41F6H         LINE#         1509
  C:41FCH         LINE#         1510
  C:41FCH         LINE#         1511
  C:41FEH         LINE#         1513
  C:4200H         LINE#         1514
  C:4203H         LINE#         1515
  C:4206H         LINE#         1516
  C:4206H         LINE#         1517
  C:4209H         LINE#         1518
  C:4209H         LINE#         1519
  C:420FH         LINE#         1520
  C:4215H         LINE#         1521
  C:4215H         LINE#         1523
  C:4215H         LINE#         1524
  C:4215H         LINE#         1525
  C:4215H         LINE#         1526
  C:4218H         LINE#         1527
  C:421BH         LINE#         1528
  C:421BH         LINE#         1529
  C:421EH         LINE#         1530
  C:421EH         LINE#         1531
  C:421EH         LINE#         1534
  -------         ENDPROC       F3_RUN_WIFI
  C:4146H         SYMBOL        L?0485
  -------         PROC          F3_RUN_ZJ
  C:4073H         LINE#         1542
  C:4073H         LINE#         1543
  C:4073H         LINE#         1546
  C:407FH         LINE#         1547
  C:407FH         LINE#         1548
  C:4085H         LINE#         1549
  C:4085H         LINE#         1550
  C:4085H         LINE#         1551
  C:4085H         LINE#         1552
  C:4088H         LINE#         1553
  C:4088H         LINE#         1554
BL51 BANKED LINKER/LOCATER V6.22.2.0                                                  02/22/2021  15:08:13  PAGE 75


  C:4091H         LINE#         1555
  C:4091H         LINE#         1556
  C:409DH         LINE#         1557
  C:409DH         LINE#         1558
  C:40A3H         LINE#         1559
  C:40A3H         LINE#         1560
  C:40A3H         LINE#         1561
  C:40A3H         LINE#         1562
  C:40A6H         LINE#         1563
  C:40A6H         LINE#         1564
  C:40AFH         LINE#         1565
  C:40AFH         LINE#         1566
  C:40BBH         LINE#         1567
  C:40BBH         LINE#         1568
  C:40C1H         LINE#         1569
  C:40C1H         LINE#         1570
  C:40C4H         LINE#         1571
  C:40C7H         LINE#         1572
  C:40CAH         LINE#         1573
  C:40CAH         LINE#         1574
  C:40D0H         LINE#         1575
  C:40D0H         LINE#         1576
  C:40DCH         LINE#         1577
  C:40DCH         LINE#         1578
  C:40E2H         LINE#         1579
  C:40E2H         LINE#         1580
  C:40E5H         LINE#         1581
  C:40E8H         LINE#         1582
  C:40EBH         LINE#         1583
  C:40EBH         LINE#         1584
  C:40F1H         LINE#         1585
  C:40F1H         LINE#         1586
  C:40FDH         LINE#         1587
  C:40FDH         LINE#         1588
  C:4103H         LINE#         1589
  C:4103H         LINE#         1590
  C:4106H         LINE#         1591
  C:4109H         LINE#         1592
  C:410CH         LINE#         1593
  C:410CH         LINE#         1594
  C:4115H         LINE#         1595
  C:411EH         LINE#         1596
  C:411EH         LINE#         1597
  C:412AH         LINE#         1598
  C:412AH         LINE#         1599
  C:4130H         LINE#         1600
  C:4130H         LINE#         1601
  C:4133H         LINE#         1602
  C:4136H         LINE#         1603
  C:4139H         LINE#         1604
  C:4139H         LINE#         1605
  C:413FH         LINE#         1606
  C:4145H         LINE#         1607
  C:4145H         LINE#         1609
  -------         ENDPROC       F3_RUN_ZJ
  -------         PROC          F3_RUN_FIRST
  C:4D48H         LINE#         1611
BL51 BANKED LINKER/LOCATER V6.22.2.0                                                  02/22/2021  15:08:13  PAGE 76


  C:4D48H         LINE#         1612
  C:4D48H         LINE#         1613
  C:4D61H         LINE#         1614
  C:4D61H         LINE#         1615
  C:4D6BH         LINE#         1616
  C:4D6BH         LINE#         1617
  C:4D6BH         LINE#         1618
  C:4D6EH         LINE#         1619
  C:4D70H         LINE#         1620
  C:4D70H         LINE#         1621
  C:4D73H         LINE#         1622
  C:4D73H         LINE#         1624
  C:4D7EH         LINE#         1625
  C:4D7EH         LINE#         1627
  C:4D88H         LINE#         1628
  C:4D8AH         LINE#         1630
  C:4D8CH         LINE#         1631
  C:4D8EH         LINE#         1632
  C:4D8EH         LINE#         1633
  C:4D92H         LINE#         1634
  C:4D92H         LINE#         1637
  C:4D9DH         LINE#         1638
  C:4D9DH         LINE#         1639
  C:4DA7H         LINE#         1640
  C:4DA9H         LINE#         1642
  C:4DABH         LINE#         1643
  C:4DADH         LINE#         1644
  C:4DB2H         LINE#         1645
  C:4DB5H         LINE#         1646
  C:4DB5H         LINE#         1647
  -------         ENDPROC       F3_RUN_FIRST
  -------         PROC          INITIALIZE_PWM
  C:5275H         LINE#         1665
  C:5275H         LINE#         1666
  C:5275H         LINE#         1667
  C:5278H         LINE#         1668
  C:527BH         LINE#         1669
  C:527EH         LINE#         1670
  C:5281H         LINE#         1671
  C:5284H         LINE#         1672
  C:5287H         LINE#         1678
  C:5287H         LINE#         1679
  C:5287H         LINE#         1680
  C:5287H         LINE#         1681
  C:5287H         LINE#         1683
  C:5287H         LINE#         1684
  C:5287H         LINE#         1685
  C:5287H         LINE#         1686
  C:528AH         LINE#         1690
  C:528CH         LINE#         1691
  C:528EH         LINE#         1692
  C:5290H         LINE#         1693
  C:5292H         LINE#         1704
  C:5295H         LINE#         1705
  -------         ENDPROC       INITIALIZE_PWM
  C:52B7H         SYMBOL        L?0518
  -------         PROC          L?0517
BL51 BANKED LINKER/LOCATER V6.22.2.0                                                  02/22/2021  15:08:13  PAGE 77


  -------         ENDPROC       L?0517
  C:52B7H         SYMBOL        L?0518
  -------         PROC          RESET_PWM
  C:52BDH         LINE#         1709
  C:52BDH         LINE#         1710
  C:52BDH         LINE#         1712
  C:52BDH         LINE#         1713
  C:52BDH         LINE#         1714
  C:52BDH         LINE#         1715
  C:52BDH         LINE#         1717
  C:52BDH         LINE#         1718
  C:52BDH         LINE#         1719
  C:52BDH         LINE#         1720
  C:52C0H         LINE#         1723
  C:52C4H         LINE#         1724
  C:52C8H         LINE#         1725
  C:52CEH         LINE#         1726
  C:52D4H         LINE#         1727
  -------         ENDPROC       RESET_PWM
  -------         PROC          _ADVANCE_L
  X:0335H         SYMBOL        go
  X:0337H         SYMBOL        v
  D:0002H         SYMBOL        mode
  C:3210H         LINE#         1745
  C:3216H         LINE#         1746
  C:3216H         LINE#         1748
  C:322CH         LINE#         1749
  C:322CH         LINE#         1752
  C:322CH         LINE#         1753
  C:322FH         LINE#         1754
  C:3232H         LINE#         1755
  C:3232H         LINE#         1757
  C:3232H         LINE#         1758
  C:3235H         LINE#         1759
  C:3238H         LINE#         1760
  C:323CH         LINE#         1761
  C:3242H         LINE#         1763
  C:3242H         LINE#         1764
  C:3256H         LINE#         1765
  C:3256H         LINE#         1768
  C:3256H         LINE#         1769
  C:3259H         LINE#         1770
  C:325CH         LINE#         1771
  C:325CH         LINE#         1773
  C:325CH         LINE#         1774
  C:325FH         LINE#         1775
  C:3262H         LINE#         1776
  C:3266H         LINE#         1777
  C:326CH         LINE#         1779
  C:326CH         LINE#         1780
  C:3272H         LINE#         1781
  C:328BH         LINE#         1782
  C:3291H         LINE#         1783
  C:3297H         LINE#         1784
  C:32A9H         LINE#         1785
  C:32B5H         LINE#         1786
  C:32D1H         LINE#         1806
BL51 BANKED LINKER/LOCATER V6.22.2.0                                                  02/22/2021  15:08:13  PAGE 78


  C:32D5H         LINE#         1807
  C:3303H         LINE#         1810
  C:3326H         LINE#         1811
  C:3337H         LINE#         1812
  C:3337H         LINE#         1813
  C:333EH         LINE#         1814
  C:333EH         LINE#         1815
  C:3349H         LINE#         1816
  C:3349H         LINE#         1817
  C:334DH         LINE#         1818
  C:334DH         LINE#         1819
  C:3357H         LINE#         1820
  C:3357H         LINE#         1821
  C:3361H         LINE#         1822
  C:3361H         LINE#         1823
  C:3363H         LINE#         1824
  C:3365H         LINE#         1826
  C:3367H         LINE#         1828
  C:3367H         LINE#         1829
  C:336CH         LINE#         1830
  C:3373H         LINE#         1831
  C:3373H         LINE#         1832
  C:3375H         LINE#         1834
  C:3375H         LINE#         1835
  C:337FH         LINE#         1836
  C:337FH         LINE#         1837
  C:3381H         LINE#         1838
  C:3383H         LINE#         1840
  C:3385H         LINE#         1842
  C:3385H         LINE#         1843
  C:338AH         LINE#         1844
  C:338FH         LINE#         1845
  C:338FH         LINE#         1846
  C:338FH         LINE#         1847
  C:3397H         LINE#         1848
  C:339CH         LINE#         1850
  -------         ENDPROC       _ADVANCE_L
  -------         PROC          _ADVANCE_R
  X:0335H         SYMBOL        go
  X:0337H         SYMBOL        v
  D:0002H         SYMBOL        mode
  C:339DH         LINE#         1855
  C:33A3H         LINE#         1856
  C:33A3H         LINE#         1858
  C:33B9H         LINE#         1859
  C:33B9H         LINE#         1862
  C:33B9H         LINE#         1863
  C:33B9H         LINE#         1864
  C:33B9H         LINE#         1865
  C:33B9H         LINE#         1867
  C:33B9H         LINE#         1868
  C:33B9H         LINE#         1869
  C:33BCH         LINE#         1870
  C:33BCH         LINE#         1871
  C:33BFH         LINE#         1873
  C:33BFH         LINE#         1874
  C:33D3H         LINE#         1875
BL51 BANKED LINKER/LOCATER V6.22.2.0                                                  02/22/2021  15:08:13  PAGE 79


  C:33D3H         LINE#         1878
  C:33D3H         LINE#         1879
  C:33D3H         LINE#         1880
  C:33D3H         LINE#         1881
  C:33D3H         LINE#         1883
  C:33D3H         LINE#         1884
  C:33D3H         LINE#         1885
  C:33D6H         LINE#         1886
  C:33D6H         LINE#         1887
  C:33D9H         LINE#         1888
  C:33D9H         LINE#         1889
  C:33E8H         LINE#         1890
  C:3401H         LINE#         1891
  C:3410H         LINE#         1892
  C:3416H         LINE#         1893
  C:3428H         LINE#         1894
  C:3434H         LINE#         1895
  C:3450H         LINE#         1921
  C:3454H         LINE#         1922
  C:3482H         LINE#         1924
  C:34A5H         LINE#         1925
  C:34B6H         LINE#         1926
  C:34B6H         LINE#         1927
  C:34BDH         LINE#         1928
  C:34BDH         LINE#         1929
  C:34C8H         LINE#         1930
  C:34C8H         LINE#         1931
  C:34CCH         LINE#         1932
  C:34CCH         LINE#         1936
  C:34D6H         LINE#         1937
  C:34D6H         LINE#         1938
  C:34E0H         LINE#         1939
  C:34E0H         LINE#         1940
  C:34E2H         LINE#         1941
  C:34E4H         LINE#         1942
  C:34E6H         LINE#         1944
  C:34E6H         LINE#         1945
  C:34EEH         LINE#         1946
  C:34F3H         LINE#         1947
  C:34F3H         LINE#         1950
  C:34F5H         LINE#         1952
  C:34F5H         LINE#         1953
  C:34FFH         LINE#         1954
  C:34FFH         LINE#         1955
  C:3501H         LINE#         1956
  C:3503H         LINE#         1957
  C:3505H         LINE#         1959
  C:3505H         LINE#         1960
  C:350DH         LINE#         1961
  C:3512H         LINE#         1962
  C:3512H         LINE#         1965
  C:3512H         LINE#         1966
  C:351AH         LINE#         1967
  C:351FH         LINE#         1969
  -------         ENDPROC       _ADVANCE_R
  -------         PROC          INT8_17_RPT
  C:4E23H         LINE#         1982
BL51 BANKED LINKER/LOCATER V6.22.2.0                                                  02/22/2021  15:08:13  PAGE 80


  C:4E30H         LINE#         1984
  C:4E35H         LINE#         1985
  C:4E35H         LINE#         1986
  C:4E43H         LINE#         1987
  C:4E43H         LINE#         1988
  C:4E49H         LINE#         1989
  C:4E57H         LINE#         1990
  C:4E5FH         LINE#         1991
  C:4E5FH         LINE#         1992
  C:4E64H         LINE#         1993
  C:4E64H         LINE#         1994
  C:4E64H         LINE#         1995
  C:4E67H         LINE#         1996
  C:4E6CH         LINE#         1997
  C:4E6CH         LINE#         1998
  C:4E6CH         LINE#         1999
  C:4E74H         LINE#         2000
  C:4E74H         LINE#         2001
  C:4E79H         LINE#         2002
  C:4E79H         LINE#         2003
  C:4E79H         LINE#         2004
  C:4E7CH         LINE#         2005
  C:4E81H         LINE#         2006
  C:4E81H         LINE#         2007
  C:4E81H         LINE#         2008
  C:4E81H         LINE#         2009
  C:4E84H         LINE#         2011
  C:4E84H         LINE#         2012
  -------         ENDPROC       INT8_17_RPT
  -------         PROC          P2INT_RPT
  C:4CC8H         LINE#         2015
  C:4CD5H         LINE#         2018
  C:4CDAH         LINE#         2019
  C:4CDAH         LINE#         2020
  C:4CE8H         LINE#         2021
  C:4CE8H         LINE#         2022
  C:4CEEH         LINE#         2023
  C:4CFCH         LINE#         2024
  C:4D04H         LINE#         2025
  C:4D04H         LINE#         2026
  C:4D11H         LINE#         2027
  C:4D11H         LINE#         2028
  C:4D11H         LINE#         2029
  C:4D14H         LINE#         2030
  C:4D19H         LINE#         2031
  C:4D19H         LINE#         2032
  C:4D19H         LINE#         2033
  C:4D21H         LINE#         2034
  C:4D21H         LINE#         2035
  C:4D32H         LINE#         2036
  C:4D32H         LINE#         2037
  C:4D32H         LINE#         2038
  C:4D35H         LINE#         2039
  C:4D3AH         LINE#         2040
  C:4D3AH         LINE#         2041
  C:4D3AH         LINE#         2043
  C:4D3AH         LINE#         2044
BL51 BANKED LINKER/LOCATER V6.22.2.0                                                  02/22/2021  15:08:13  PAGE 81


  C:4D3DH         LINE#         2046
  C:4D3DH         LINE#         2047
  -------         ENDPROC       P2INT_RPT
  -------         ENDMOD        TASK3

  -------         MODULE        OS_CORE
  C:0000H         SYMBOL        _ICE_DUMMY_
  X:0000H         PUBLIC        OSRdyGrp
  D:0080H         PUBLIC        P0
  D:0090H         PUBLIC        P1
  D:00A0H         PUBLIC        P2
  D:00B0H         PUBLIC        P3
  B:00A8H.7       PUBLIC        EA
  I:000AH         PUBLIC        OSRunning
  X:0001H         PUBLIC        OSLockNesting
  D:00A8H         PUBLIC        IE
  C:470EH         SYMBOL        _?OS_InitTCBList
  D:00F8H         PUBLIC        RSTFR
  C:51DAH         SYMBOL        _?OS_SchedNew
  C:5143H         PUBLIC        _?OS_TaskIdle
  X:0002H         PUBLIC        OSTCBList
  X:0005H         PUBLIC        OSTCBTbl
  X:0055H         PUBLIC        OSTCBFreeList
  C:5250H         SYMBOL        _?OS_InitMisc
  I:000BH         PUBLIC        OSTCBCur
  X:0058H         PUBLIC        OSUnMapTbl
  X:0158H         PUBLIC        OSIntNesting
  C:52D5H         SYMBOL        _?OS_InitTaskIdle
  I:000EH         PUBLIC        OSTCBHighRdy
  C:5296H         PUBLIC        _?OSStart
  D:0098H         PUBLIC        SCON
  D:0088H         PUBLIC        TCON
  C:000EH         PUBLIC        _?OSInit
  C:0003H         SYMBOL        _?OS_InitEventList
  X:0159H         PUBLIC        OSTCBPrioTbl
  D:00B8H         PUBLIC        IE1
  D:00D8H         PUBLIC        IE2
  C:43DBH         PUBLIC        _?OSTimeTick
  C:5084H         PUBLIC        _?OS_MemClr
  X:0168H         PUBLIC        OSCtxSwCtr
  X:016CH         PUBLIC        OSIdleCtr
  C:533EH         PUBLIC        _?OSIntEnter
  X:0170H         PUBLIC        OSTaskCtr
  C:5041H         SYMBOL        _?OS_InitRdyList
  I:0011H         PUBLIC        OSPrioCur
  C:5203H         PUBLIC        _?OS_Sched
  C:50C7H         PUBLIC        _?OSIntExit
  X:0171H         PUBLIC        OSTaskIdleStk
  C:2E87H         PUBLIC        _?OS_TCBInit
  I:0012H         PUBLIC        OSPrioHighRdy
  X:01A1H         PUBLIC        OSRdyTbl
  D:00D0H         PUBLIC        PSW
  C:4231H         SYMBOL        Com0036
  C:4231H         SYMBOL        L?0055
  C:4231H         SYMBOL        L?0056
  C:4233H         SYMBOL        L?0057
  C:4239H         SYMBOL        L?0058
BL51 BANKED LINKER/LOCATER V6.22.2.0                                                  02/22/2021  15:08:13  PAGE 82


  C:4241H         SYMBOL        L?0059
  C:4241H         SYMBOL        L?0060
  C:4247H         SYMBOL        L?0061
  C:4248H         SYMBOL        L?0062
  C:4250H         SYMBOL        L?0063
  C:4250H         SYMBOL        L?0064
  C:4256H         SYMBOL        L?0065
  C:4257H         SYMBOL        L?0066
  C:425EH         SYMBOL        L?0067
  C:4271H         SYMBOL        L?0068
  C:4273H         SYMBOL        L?0069
  C:427BH         SYMBOL        L?0070
  C:427FH         SYMBOL        L?0071
  C:428DH         SYMBOL        L?0072
  C:42ACH         SYMBOL        L?0073
  C:42ADH         SYMBOL        L?0074
  C:42BAH         SYMBOL        L?0075
  C:42BAH         SYMBOL        L?0076
  C:42BCH         SYMBOL        L?0077
  C:42C4H         SYMBOL        L?0078
  C:42D3H         SYMBOL        L?0079
  C:42D3H         SYMBOL        L?0080
  C:42D9H         SYMBOL        L?0081
  C:42D9H         SYMBOL        L?0082
  C:42DFH         SYMBOL        L?0083
  C:42EAH         SYMBOL        L?0084
  C:42F5H         SYMBOL        L?0085
  C:42F5H         SYMBOL        L?0086
  C:42FCH         SYMBOL        L?0087
  -------         PROC          COM0036
  -------         ENDPROC       COM0036
  -------         PROC          _?OSINIT
  C:000EH         LINE#         570
  C:000EH         LINE#         572
  C:0011H         LINE#         574
  C:0014H         LINE#         576
  C:0017H         LINE#         578
  C:001AH         LINE#         580
  C:001DH         LINE#         594
  C:0020H         LINE#         603
  -------         ENDPROC       _?OSINIT
  -------         PROC          _?OSINTENTER
  C:533EH         LINE#         635
  C:533EH         LINE#         637
  C:5345H         LINE#         638
  C:5351H         LINE#         639
  C:5354H         LINE#         640
  C:5354H         LINE#         641
  C:5354H         LINE#         642
  -------         ENDPROC       _?OSINTENTER
  -------         PROC          _?OSINTEXIT
  C:50C7H         LINE#         663
  C:50C7H         LINE#         671
  C:50CEH         LINE#         672
  C:50D0H         LINE#         673
  C:50DCH         LINE#         674
  C:50DFH         LINE#         675
BL51 BANKED LINKER/LOCATER V6.22.2.0                                                  02/22/2021  15:08:13  PAGE 83


  C:50DFH         LINE#         676
  C:50E5H         LINE#         677
  C:50EBH         LINE#         678
  C:50EEH         LINE#         679
  C:50F7H         LINE#         680
  C:50FCH         LINE#         684
  C:50FFH         LINE#         685
  C:5102H         LINE#         686
  C:5102H         LINE#         687
  C:5102H         LINE#         688
  C:5102H         LINE#         689
  C:5104H         LINE#         690
  C:5104H         LINE#         691
  -------         ENDPROC       _?OSINTEXIT
  -------         PROC          _?OSSTART
  C:5296H         LINE#         823
  C:5296H         LINE#         825
  C:529BH         LINE#         826
  C:529EH         LINE#         827
  C:52A4H         LINE#         828
  C:52AEH         LINE#         829
  C:52B3H         LINE#         830
  C:52B6H         LINE#         831
  C:52B6H         LINE#         832
  -------         ENDPROC       _?OSSTART
  -------         PROC          _?OSTIMETICK
  -------         DO            
  x:0000H         SYMBOL        ptcb
  -------         ENDDO         
  C:43DBH         LINE#         890
  C:43E1H         LINE#         898
  C:43E4H         LINE#         905
  C:43EEH         LINE#         930
  C:43F8H         LINE#         931
  C:4409H         LINE#         932
  C:440BH         LINE#         933
  C:4413H         LINE#         934
  C:4433H         LINE#         935
  C:4438H         LINE#         937
  C:4446H         LINE#         938
  C:4455H         LINE#         939
  C:445EH         LINE#         940
  C:4460H         LINE#         941
  C:446BH         LINE#         942
  C:446BH         LINE#         944
  C:4479H         LINE#         945
  C:447EH         LINE#         946
  C:4490H         LINE#         947
  C:4490H         LINE#         948
  C:4490H         LINE#         949
  C:4490H         LINE#         950
  C:44A0H         LINE#         951
  C:44A2H         LINE#         952
  C:44A5H         LINE#         953
  C:44A5H         LINE#         954
  -------         ENDPROC       _?OSTIMETICK
  -------         PROC          _?OS_INITEVENTLIST
BL51 BANKED LINKER/LOCATER V6.22.2.0                                                  02/22/2021  15:08:13  PAGE 84


  C:0003H         LINE#         1273
  C:0003H         LINE#         1310
  -------         ENDPROC       _?OS_INITEVENTLIST
  -------         PROC          _?OS_INITMISC
  C:5250H         LINE#         1325
  C:5250H         LINE#         1331
  C:5255H         LINE#         1332
  C:5259H         LINE#         1334
  C:525DH         LINE#         1336
  C:5260H         LINE#         1338
  C:526AH         LINE#         1339
  C:5274H         LINE#         1350
  -------         ENDPROC       _?OS_INITMISC
  -------         PROC          _?OS_INITRDYLIST
  -------         DO            
  x:0000H         SYMBOL        i
  -------         ENDDO         
  C:5041H         LINE#         1365
  C:5044H         LINE#         1370
  C:5049H         LINE#         1371
  C:505AH         LINE#         1372
  C:5062H         LINE#         1373
  C:506AH         LINE#         1375
  C:506EH         LINE#         1376
  C:5070H         LINE#         1378
  C:5077H         LINE#         1379
  C:507EH         LINE#         1380
  -------         ENDPROC       _?OS_INITRDYLIST
  -------         PROC          _?OS_INITTASKIDLE
  C:52D5H         LINE#         1396
  C:52D5H         LINE#         1433
  -------         ENDPROC       _?OS_INITTASKIDLE
  -------         PROC          _?OS_INITTCBLIST
  -------         DO            
  x:0000H         SYMBOL        ix
  x:0001H         SYMBOL        ix_next
  x:0002H         SYMBOL        ptcb1
  x:0005H         SYMBOL        ptcb2
  -------         ENDDO         
  C:470EH         LINE#         1520
  C:4714H         LINE#         1528
  C:4721H         LINE#         1529
  C:472EH         LINE#         1530
  C:4740H         LINE#         1531
  C:4744H         LINE#         1532
  C:4752H         LINE#         1533
  C:4764H         LINE#         1534
  C:4783H         LINE#         1538
  C:478CH         LINE#         1539
  C:4799H         LINE#         1540
  C:47B1H         LINE#         1544
  C:47BAH         LINE#         1545
  C:47C9H         LINE#         1546
  -------         ENDPROC       _?OS_INITTCBLIST
  -------         PROC          _?OS_MEMCLR
  x:0000H         SYMBOL        pdest
  x:0003H         SYMBOL        size
BL51 BANKED LINKER/LOCATER V6.22.2.0                                                  02/22/2021  15:08:13  PAGE 85


  C:5084H         LINE#         1568
  C:5092H         LINE#         1569
  C:5092H         LINE#         1571
  C:50A1H         LINE#         1572
  C:50B5H         LINE#         1573
  C:50BFH         LINE#         1574
  C:50C1H         LINE#         1575
  -------         ENDPROC       _?OS_MEMCLR
  -------         PROC          _?OS_SCHED
  C:5203H         LINE#         1631
  C:5203H         LINE#         1639
  C:5205H         LINE#         1640
  C:520BH         LINE#         1641
  C:5211H         LINE#         1642
  C:5214H         LINE#         1643
  C:521DH         LINE#         1644
  C:5222H         LINE#         1648
  C:5225H         LINE#         1649
  C:5228H         LINE#         1650
  C:5228H         LINE#         1651
  C:5228H         LINE#         1652
  C:5228H         LINE#         1653
  C:522AH         LINE#         1654
  -------         ENDPROC       _?OS_SCHED
  -------         PROC          _?OS_SCHEDNEW
  -------         DO            
  x:0000H         SYMBOL        y
  -------         ENDDO         
  C:51DAH         LINE#         1673
  C:51DDH         LINE#         1679
  C:51E7H         LINE#         1680
  C:51FDH         LINE#         1698
  -------         ENDPROC       _?OS_SCHEDNEW
  -------         PROC          _?OS_TASKIDLE
  x:0000H         SYMBOL        p_arg
  C:5143H         LINE#         1753
  C:5146H         LINE#         1761
  C:5150H         LINE#         1762
  C:5150H         LINE#         1763
  C:5152H         LINE#         1764
  C:5171H         LINE#         1765
  C:5173H         LINE#         1766
  C:5176H         LINE#         1767
  -------         ENDPROC       _?OS_TASKIDLE
  -------         PROC          _?OS_TCBINIT
  x:0003H         SYMBOL        prio
  x:0004H         SYMBOL        ptos
  x:0007H         SYMBOL        pbos
  x:000AH         SYMBOL        id
  x:000CH         SYMBOL        stk_size
  x:0010H         SYMBOL        pext
  x:0013H         SYMBOL        opt
  -------         DO            
  x:0000H         SYMBOL        ptcb
  -------         ENDDO         
  C:2E87H         LINE#         1917
  C:2E95H         LINE#         1923
BL51 BANKED LINKER/LOCATER V6.22.2.0                                                  02/22/2021  15:08:13  PAGE 86


  C:2E95H         LINE#         1934
  C:2E97H         LINE#         1935
  C:2EA1H         LINE#         1936
  C:2EABH         LINE#         1937
  C:2EBBH         LINE#         1938
  C:2EBDH         LINE#         1939
  C:2ED4H         LINE#         1940
  C:2EE2H         LINE#         1941
  C:2EE9H         LINE#         1942
  C:2EF0H         LINE#         1943
  C:2EFAH         LINE#         1952
  C:2F0DH         LINE#         1953
  C:2F27H         LINE#         1954
  C:2F3AH         LINE#         1955
  C:2F4AH         LINE#         1956
  C:2F5AH         LINE#         1964
  C:2F70H         LINE#         1965
  C:2F79H         LINE#         1971
  C:2F90H         LINE#         1972
  C:2FA7H         LINE#         2007
  C:2FAAH         LINE#         2009
  C:2FB1H         LINE#         2011
  C:2FB3H         LINE#         2012
  C:2FC1H         LINE#         2013
  C:2FD8H         LINE#         2014
  C:2FEBH         LINE#         2015
  C:2FF5H         LINE#         2016
  C:300CH         LINE#         2017
  C:300CH         LINE#         2018
  C:301DH         LINE#         2019
  C:3024H         LINE#         2020
  C:3036H         LINE#         2021
  C:303CH         LINE#         2022
  C:303EH         LINE#         2023
  C:3042H         LINE#         2024
  C:3042H         LINE#         2025
  C:3044H         LINE#         2026
  C:3046H         LINE#         2027
  -------         ENDPROC       _?OS_TCBINIT
  -------         ENDMOD        OS_CORE

  -------         MODULE        OS_FLAG
  C:0000H         SYMBOL        _ICE_DUMMY_
  D:0080H         PUBLIC        P0
  D:0090H         PUBLIC        P1
  D:00A0H         PUBLIC        P2
  D:00B0H         PUBLIC        P3
  D:00A8H         PUBLIC        IE
  D:00F8H         PUBLIC        RSTFR
  D:0098H         PUBLIC        SCON
  D:0088H         PUBLIC        TCON
  D:00B8H         PUBLIC        IE1
  D:00D8H         PUBLIC        IE2
  D:00D0H         PUBLIC        PSW
  -------         ENDMOD        OS_FLAG

  -------         MODULE        OS_MBOX
BL51 BANKED LINKER/LOCATER V6.22.2.0                                                  02/22/2021  15:08:13  PAGE 87


  C:0000H         SYMBOL        _ICE_DUMMY_
  D:0080H         PUBLIC        P0
  D:0090H         PUBLIC        P1
  D:00A0H         PUBLIC        P2
  D:00B0H         PUBLIC        P3
  D:00A8H         PUBLIC        IE
  D:00F8H         PUBLIC        RSTFR
  D:0098H         PUBLIC        SCON
  D:0088H         PUBLIC        TCON
  D:00B8H         PUBLIC        IE1
  D:00D8H         PUBLIC        IE2
  D:00D0H         PUBLIC        PSW
  -------         ENDMOD        OS_MBOX

  -------         MODULE        OS_MEM
  C:0000H         SYMBOL        _ICE_DUMMY_
  D:0080H         PUBLIC        P0
  D:0090H         PUBLIC        P1
  D:00A0H         PUBLIC        P2
  D:00B0H         PUBLIC        P3
  D:00A8H         PUBLIC        IE
  D:00F8H         PUBLIC        RSTFR
  D:0098H         PUBLIC        SCON
  D:0088H         PUBLIC        TCON
  D:00B8H         PUBLIC        IE1
  D:00D8H         PUBLIC        IE2
  D:00D0H         PUBLIC        PSW
  -------         ENDMOD        OS_MEM

  -------         MODULE        OS_MUTEX
  C:0000H         SYMBOL        _ICE_DUMMY_
  D:0080H         PUBLIC        P0
  D:0090H         PUBLIC        P1
  D:00A0H         PUBLIC        P2
  D:00B0H         PUBLIC        P3
  D:00A8H         PUBLIC        IE
  D:00F8H         PUBLIC        RSTFR
  D:0098H         PUBLIC        SCON
  D:0088H         PUBLIC        TCON
  D:00B8H         PUBLIC        IE1
  D:00D8H         PUBLIC        IE2
  D:00D0H         PUBLIC        PSW
  -------         ENDMOD        OS_MUTEX

  -------         MODULE        OS_Q
  C:0000H         SYMBOL        _ICE_DUMMY_
  D:0080H         PUBLIC        P0
  D:0090H         PUBLIC        P1
  D:00A0H         PUBLIC        P2
  D:00B0H         PUBLIC        P3
  D:00A8H         PUBLIC        IE
  D:00F8H         PUBLIC        RSTFR
  D:0098H         PUBLIC        SCON
  D:0088H         PUBLIC        TCON
  D:00B8H         PUBLIC        IE1
  D:00D8H         PUBLIC        IE2
  D:00D0H         PUBLIC        PSW
BL51 BANKED LINKER/LOCATER V6.22.2.0                                                  02/22/2021  15:08:13  PAGE 88


  -------         ENDMOD        OS_Q

  -------         MODULE        OS_SEM
  C:0000H         SYMBOL        _ICE_DUMMY_
  D:0080H         PUBLIC        P0
  D:0090H         PUBLIC        P1
  D:00A0H         PUBLIC        P2
  D:00B0H         PUBLIC        P3
  D:00A8H         PUBLIC        IE
  D:00F8H         PUBLIC        RSTFR
  D:0098H         PUBLIC        SCON
  D:0088H         PUBLIC        TCON
  D:00B8H         PUBLIC        IE1
  D:00D8H         PUBLIC        IE2
  D:00D0H         PUBLIC        PSW
  -------         ENDMOD        OS_SEM

  -------         MODULE        OS_TASK
  C:0000H         SYMBOL        _ICE_DUMMY_
  D:0080H         PUBLIC        P0
  D:0090H         PUBLIC        P1
  D:00A0H         PUBLIC        P2
  D:00B0H         PUBLIC        P3
  B:00A8H.7       PUBLIC        EA
  D:00A8H         PUBLIC        IE
  C:4306H         PUBLIC        _?OSTaskCreate
  D:00F8H         PUBLIC        RSTFR
  C:3CC0H         PUBLIC        _?OSTaskSuspend
  C:457BH         PUBLIC        _?OSTaskResume
  D:0098H         PUBLIC        SCON
  D:0088H         PUBLIC        TCON
  D:00B8H         PUBLIC        IE1
  D:00D8H         PUBLIC        IE2
  D:00D0H         PUBLIC        PSW
  C:4BBDH         SYMBOL        Com001F
  C:4BBDH         SYMBOL        L?0032
  C:4BBFH         SYMBOL        L?0033
  C:4BC5H         SYMBOL        L?0034
  C:4BCDH         SYMBOL        L?0035
  C:4BD9H         SYMBOL        L?0036
  C:4BDAH         SYMBOL        L?0037
  C:4BE0H         SYMBOL        L?0038
  C:4BE1H         SYMBOL        L?0039
  C:4BE9H         SYMBOL        L?0040
  C:4C01H         SYMBOL        L?0041
  C:4C08H         SYMBOL        L?0042
  C:4C08H         SYMBOL        L?0043
  C:4C16H         SYMBOL        L?0044
  C:4C26H         SYMBOL        L?0045
  C:4C28H         SYMBOL        L?0046
  C:4C30H         SYMBOL        L?0047
  C:4C30H         SYMBOL        L?0048
  C:4C36H         SYMBOL        L?0049
  C:4C36H         SYMBOL        L?0050
  C:4C3CH         SYMBOL        L?0051
  -------         PROC          COM001F
  -------         ENDPROC       COM001F
BL51 BANKED LINKER/LOCATER V6.22.2.0                                                  02/22/2021  15:08:13  PAGE 89


  -------         PROC          _?OSTASKCREATE
  x:0004H         SYMBOL        task
  x:0007H         SYMBOL        p_arg
  x:000AH         SYMBOL        ptos
  x:000DH         SYMBOL        prio
  -------         DO            
  x:0000H         SYMBOL        psp
  x:0003H         SYMBOL        err
  -------         ENDDO         
  C:4306H         LINE#         207
  C:430FH         LINE#         210
  C:430FH         LINE#         231
  C:4311H         LINE#         232
  C:431DH         LINE#         233
  C:431FH         LINE#         234
  C:4324H         LINE#         235
  C:4324H         LINE#         236
  C:4339H         LINE#         237
  C:4346H         LINE#         239
  C:4348H         LINE#         240
  C:4374H         LINE#         241
  C:43A1H         LINE#         242
  C:43A7H         LINE#         243
  C:43AEH         LINE#         244
  C:43B1H         LINE#         245
  C:43B1H         LINE#         246
  C:43B3H         LINE#         247
  C:43B5H         LINE#         248
  C:43C8H         LINE#         249
  C:43CAH         LINE#         250
  C:43CAH         LINE#         251
  C:43D1H         LINE#         252
  C:43D1H         LINE#         253
  C:43D3H         LINE#         254
  C:43D5H         LINE#         255
  -------         ENDPROC       _?OSTASKCREATE
  -------         PROC          _?OSTASKRESUME
  x:0003H         SYMBOL        prio
  -------         DO            
  x:0000H         SYMBOL        ptcb
  -------         ENDDO         
  C:457BH         LINE#         795
  C:4589H         LINE#         809
  C:458BH         LINE#         810
  C:4595H         LINE#         811
  C:459CH         LINE#         812
  C:459EH         LINE#         813
  C:45A3H         LINE#         814
  C:45A3H         LINE#         815
  C:45B8H         LINE#         816
  C:45BAH         LINE#         817
  C:45BFH         LINE#         818
  C:45BFH         LINE#         819
  C:45CDH         LINE#         820
  C:45D6H         LINE#         821
  C:45E2H         LINE#         822
  C:45F3H         LINE#         823
BL51 BANKED LINKER/LOCATER V6.22.2.0                                                  02/22/2021  15:08:13  PAGE 90


  C:4607H         LINE#         824
  C:4626H         LINE#         825
  C:4628H         LINE#         826
  C:462FH         LINE#         827
  C:4632H         LINE#         828
  C:4632H         LINE#         829
  C:4634H         LINE#         830
  C:4636H         LINE#         831
  C:4636H         LINE#         832
  C:4638H         LINE#         833
  C:463AH         LINE#         834
  C:463AH         LINE#         835
  C:463EH         LINE#         836
  C:463EH         LINE#         837
  C:4640H         LINE#         838
  C:4642H         LINE#         839
  -------         ENDPROC       _?OSTASKRESUME
  -------         PROC          _?OSTASKSUSPEND
  x:0005H         SYMBOL        prio
  -------         DO            
  x:0000H         SYMBOL        self
  x:0001H         SYMBOL        ptcb
  x:0004H         SYMBOL        y
  -------         ENDDO         
  C:3CC0H         LINE#         947
  C:3CCEH         LINE#         968
  C:3CD0H         LINE#         969
  C:3CDBH         LINE#         970
  C:3CE7H         LINE#         971
  C:3CE7H         LINE#         972
  C:3CEFH         LINE#         973
  C:3CF5H         LINE#         974
  C:3CF7H         LINE#         975
  C:3CFCH         LINE#         976
  C:3CFCH         LINE#         977
  C:3D07H         LINE#         978
  C:3D12H         LINE#         979
  C:3D14H         LINE#         980
  C:3D19H         LINE#         981
  C:3D19H         LINE#         982
  C:3D32H         LINE#         983
  C:3D34H         LINE#         984
  C:3D39H         LINE#         985
  C:3D39H         LINE#         986
  C:3D50H         LINE#         987
  C:3D78H         LINE#         988
  C:3D81H         LINE#         989
  C:3D94H         LINE#         990
  C:3D94H         LINE#         991
  C:3DA3H         LINE#         992
  C:3DA5H         LINE#         993
  C:3DADH         LINE#         994
  C:3DB0H         LINE#         995
  C:3DB0H         LINE#         996
  C:3DB2H         LINE#         997
  -------         ENDPROC       _?OSTASKSUSPEND
  -------         ENDMOD        OS_TASK
BL51 BANKED LINKER/LOCATER V6.22.2.0                                                  02/22/2021  15:08:13  PAGE 91



  -------         MODULE        OS_TIME
  C:0000H         SYMBOL        _ICE_DUMMY_
  D:0080H         PUBLIC        P0
  D:0090H         PUBLIC        P1
  D:00A0H         PUBLIC        P2
  D:00B0H         PUBLIC        P3
  B:00A8H.7       PUBLIC        EA
  D:00A8H         PUBLIC        IE
  D:00F8H         PUBLIC        RSTFR
  C:4648H         PUBLIC        _?OSTimeDlyHMSM
  D:0098H         PUBLIC        SCON
  D:0088H         PUBLIC        TCON
  D:00B8H         PUBLIC        IE1
  D:00D8H         PUBLIC        IE2
  C:49DFH         PUBLIC        _?OSTimeDly
  D:00D0H         PUBLIC        PSW
  C:5105H         SYMBOL        Com0009
  C:5105H         SYMBOL        L?0010
  C:510BH         SYMBOL        L?0011
  C:5113H         SYMBOL        L?0012
  C:5113H         SYMBOL        L?0013
  C:511EH         SYMBOL        L?0014
  C:511FH         SYMBOL        L?0015
  C:5126H         SYMBOL        L?0016
  C:5132H         SYMBOL        L?0017
  C:5133H         SYMBOL        L?0018
  C:5139H         SYMBOL        L?0019
  -------         PROC          COM0009
  -------         ENDPROC       COM0009
  -------         PROC          _?OSTIMEDLY
  x:0001H         SYMBOL        ticks
  -------         DO            
  x:0000H         SYMBOL        y
  -------         ENDDO         
  C:49DFH         LINE#         44
  C:49EBH         LINE#         53
  C:49F3H         LINE#         55
  C:49F3H         LINE#         56
  C:4A01H         LINE#         58
  C:4A01H         LINE#         59
  C:4A19H         LINE#         60
  C:4A1BH         LINE#         61
  C:4A28H         LINE#         62
  C:4A4BH         LINE#         63
  C:4A58H         LINE#         64
  C:4A6BH         LINE#         65
  C:4A6BH         LINE#         66
  C:4A7BH         LINE#         67
  C:4A7DH         LINE#         68
  C:4A80H         LINE#         69
  C:4A80H         LINE#         70
  -------         ENDPROC       _?OSTIMEDLY
  -------         PROC          _?OSTIMEDLYHMSM
  x:0004H         SYMBOL        hours
  x:0005H         SYMBOL        minutes
  x:0006H         SYMBOL        seconds
BL51 BANKED LINKER/LOCATER V6.22.2.0                                                  02/22/2021  15:08:13  PAGE 92


  x:0007H         SYMBOL        ms
  -------         DO            
  x:0000H         SYMBOL        ticks
  -------         ENDDO         
  C:4648H         LINE#         99
  C:4658H         LINE#         102
  C:4658H         LINE#         107
  C:465DH         LINE#         108
  C:4662H         LINE#         109
  C:4662H         LINE#         110
  C:466AH         LINE#         111
  C:466FH         LINE#         112
  C:466FH         LINE#         136
  C:46FDH         LINE#         137
  C:4706H         LINE#         138
  C:4708H         LINE#         139
  -------         ENDPROC       _?OSTIMEDLYHMSM
  -------         ENDMOD        OS_TIME

  -------         MODULE        OS_TMR
  C:0000H         SYMBOL        _ICE_DUMMY_
  D:0080H         PUBLIC        P0
  D:0090H         PUBLIC        P1
  D:00A0H         PUBLIC        P2
  D:00B0H         PUBLIC        P3
  D:00A8H         PUBLIC        IE
  D:00F8H         PUBLIC        RSTFR
  D:0098H         PUBLIC        SCON
  D:0088H         PUBLIC        TCON
  D:00B8H         PUBLIC        IE1
  D:00D8H         PUBLIC        IE2
  D:00D0H         PUBLIC        PSW
  -------         ENDMOD        OS_TMR

  -------         MODULE        ?C_STARTUP
  C:4B2BH         SEGMENT       ?C_C51STARTUP
  I:0021H         SEGMENT       ?STACK
  C:0000H         PUBLIC        ?C_STARTUP
  D:00E0H         SYMBOL        ACC
  D:00F0H         SYMBOL        B
  D:0083H         SYMBOL        DPH
  D:0082H         SYMBOL        DPL
  N:0000H         SYMBOL        IBPSTACK
  N:0100H         SYMBOL        IBPSTACKTOP
  N:00FFH         SYMBOL        IDATALEN
  C:4B2EH         SYMBOL        IDATALOOP
  N:0000H         SYMBOL        PBPSTACK
  N:0400H         SYMBOL        PBPSTACKTOP
  N:0000H         SYMBOL        PDATALEN
  N:0000H         SYMBOL        PDATASTART
  N:0000H         SYMBOL        PPAGE
  N:0000H         SYMBOL        PPAGEENABLE
  D:00A0H         SYMBOL        PPAGE_SFR
  D:0081H         SYMBOL        SP
  C:4B2BH         SYMBOL        STARTUP1
  N:0001H         SYMBOL        XBPSTACK
  N:0400H         SYMBOL        XBPSTACKTOP
BL51 BANKED LINKER/LOCATER V6.22.2.0                                                  02/22/2021  15:08:13  PAGE 93


  N:0000H         SYMBOL        XDATALEN
  N:0000H         SYMBOL        XDATASTART
  C:0000H         LINE#         92
  C:4B2BH         LINE#         99
  C:4B2DH         LINE#         100
  C:4B2EH         LINE#         101
  C:4B2FH         LINE#         102
  C:4B31H         LINE#         142
  C:4B34H         LINE#         143
  C:4B37H         LINE#         151
  C:4B3AH         LINE#         155
  -------         ENDMOD        ?C_STARTUP

  -------         MODULE        OS_CPU_C
  C:0000H         SYMBOL        _ICE_DUMMY_
  D:0080H         PUBLIC        P0
  D:0090H         PUBLIC        P1
  D:00A0H         PUBLIC        P2
  D:00B0H         PUBLIC        P3
  C:44ABH         PUBLIC        _?OSTaskStkInit
  B:00A8H.7       PUBLIC        EA
  D:00A8H         PUBLIC        IE
  B:00B0H.0       PUBLIC        P3_0
  B:00A0H.1       PUBLIC        P2_1
  D:00F8H         PUBLIC        RSTFR
  B:00B0H.1       PUBLIC        P3_1
  B:0080H.6       PUBLIC        P0_6
  B:0080H.7       PUBLIC        P0_7
  C:0006H         PUBLIC        _?OSTaskSwHook
  C:5368H         PUBLIC        _?OSTaskCreateHook
  C:5371H         PUBLIC        _?OSTCBInitHook
  D:00BDH         PUBLIC        WDTC
  C:535FH         PUBLIC        UserTickTimer
  D:0098H         PUBLIC        SCON
  D:0089H         PUBLIC        TMOD
  D:0088H         PUBLIC        TCON
  C:0004H         PUBLIC        _?OSInitHookBegin
  D:00B4H         PUBLIC        ADCC0
  D:00B8H         PUBLIC        IE1
  D:00D8H         PUBLIC        IE2
  D:00F1H         PUBLIC        PWMM
  B:00A8H.1       PUBLIC        ET0
  C:3685H         PUBLIC        _?InitHardware
  D:008CH         PUBLIC        TH0
  C:0008H         PUBLIC        _?OSTaskIdleHook
  D:00CEH         PUBLIC        TH4
  D:008AH         PUBLIC        TL0
  D:00CDH         PUBLIC        TL4
  C:0007H         PUBLIC        _?OSTimeTickHook
  B:0088H.4       PUBLIC        TR0
  D:008EH         PUBLIC        CLKSWR
  C:4FFDH         PUBLIC        OSTickISRuser
  C:0005H         PUBLIC        _?OSInitHookEnd
  D:009EH         PUBLIC        SCON2
  D:00DAH         PUBLIC        PWM0C
  D:00DBH         PUBLIC        PWM1C
  D:00CCH         PUBLIC        T4CON
BL51 BANKED LINKER/LOCATER V6.22.2.0                                                  02/22/2021  15:08:13  PAGE 94


  D:00DCH         PUBLIC        PWM2C
  C:007EH         PUBLIC        _Delay_2us
  D:00D0H         PUBLIC        PSW
  C:4DB6H         SYMBOL        Com0010
  C:4DB6H         SYMBOL        L?0017
  C:4DD2H         SYMBOL        L?0018
  C:4DD5H         SYMBOL        L?0019
  C:4DE9H         SYMBOL        L?0020
  C:4DFDH         SYMBOL        L?0021
  C:4E0BH         SYMBOL        L?0022
  C:4E13H         SYMBOL        L?0023
  C:4E14H         SYMBOL        L?0024
  C:4E17H         SYMBOL        L?0025
  C:4E1DH         SYMBOL        L?0026
  C:4E1DH         SYMBOL        L?0027
  -------         PROC          COM0010
  -------         ENDPROC       COM0010
  -------         PROC          _?OSTASKSTKINIT
  x:0003H         SYMBOL        task
  x:0006H         SYMBOL        ppdata
  x:0009H         SYMBOL        ptos
  x:000CH         SYMBOL        opt
  -------         DO            
  x:0000H         SYMBOL        stk
  -------         ENDDO         
  C:44ABH         LINE#         56
  C:44BBH         LINE#         60
  C:44CDH         LINE#         61
  C:44E3H         LINE#         62
  C:44E9H         LINE#         63
  C:44F1H         LINE#         64
  C:4502H         LINE#         65
  C:4505H         LINE#         66
  C:450AH         LINE#         67
  C:450FH         LINE#         68
  C:4513H         LINE#         69
  C:4517H         LINE#         70
  C:451BH         LINE#         71
  C:4522H         LINE#         75
  C:4530H         LINE#         76
  C:4533H         LINE#         77
  C:4538H         LINE#         79
  C:453DH         LINE#         80
  C:4542H         LINE#         81
  C:4547H         LINE#         82
  C:454CH         LINE#         84
  C:455CH         LINE#         85
  C:456AH         LINE#         87
  C:4575H         LINE#         88
  -------         ENDPROC       _?OSTASKSTKINIT
  -------         PROC          USERTICKTIMER
  C:535FH         LINE#         95
  C:535FH         LINE#         96
  C:535FH         LINE#         97
  C:5362H         LINE#         98
  C:5365H         LINE#         99
  C:5367H         LINE#         100
BL51 BANKED LINKER/LOCATER V6.22.2.0                                                  02/22/2021  15:08:13  PAGE 95


  -------         ENDPROC       USERTICKTIMER
  -------         PROC          OSTICKISRUSER
  C:4FFDH         LINE#         105
  C:501AH         LINE#         107
  C:501DH         LINE#         108
  C:5020H         LINE#         109
  C:5023H         LINE#         110
  C:5026H         LINE#         111
  -------         ENDPROC       OSTICKISRUSER
  -------         PROC          _?INITHARDWARE
  C:3685H         LINE#         113
  C:3685H         LINE#         115
  C:3688H         LINE#         116
  C:368EH         LINE#         122
  C:3691H         LINE#         123
  C:3694H         LINE#         124
  C:3697H         LINE#         125
  C:369AH         LINE#         126
  C:369CH         LINE#         127
  C:369EH         LINE#         128
  C:36A5H         LINE#         132
  C:36ABH         LINE#         133
  C:36AFH         LINE#         134
  C:36B3H         LINE#         135
  C:36B7H         LINE#         137
  C:36BDH         LINE#         138
  C:36C2H         LINE#         139
  C:36C5H         LINE#         143
  C:36CBH         LINE#         144
  C:36D0H         LINE#         145
  C:36D3H         LINE#         150
  C:36D9H         LINE#         153
  C:36DFH         LINE#         154
  C:36E2H         LINE#         157
  C:36E5H         LINE#         175
  C:36EBH         LINE#         176
  C:36EFH         LINE#         179
  C:36F5H         LINE#         182
  C:36FBH         LINE#         183
  C:36FDH         LINE#         185
  C:36FFH         LINE#         186
  C:3703H         LINE#         202
  C:3707H         LINE#         205
  C:370BH         LINE#         206
  C:370FH         LINE#         207
  C:3711H         LINE#         208
  C:3713H         LINE#         212
  C:3717H         LINE#         217
  C:371BH         LINE#         218
  C:371DH         LINE#         224
  C:3723H         LINE#         226
  C:3727H         LINE#         230
  C:372CH         LINE#         231
  C:3730H         LINE#         232
  C:3734H         LINE#         234
  C:373AH         LINE#         235
  C:373EH         LINE#         236
BL51 BANKED LINKER/LOCATER V6.22.2.0                                                  02/22/2021  15:08:13  PAGE 96


  C:3742H         LINE#         237
  C:3746H         LINE#         238
  C:374AH         LINE#         240
  C:374DH         LINE#         242
  C:3754H         LINE#         243
  C:375AH         LINE#         245
  C:3760H         LINE#         248
  C:3766H         LINE#         250
  C:376CH         LINE#         251
  C:3772H         LINE#         253
  C:3778H         LINE#         257
  C:377BH         LINE#         258
  C:377EH         LINE#         259
  C:3781H         LINE#         280
  C:3787H         LINE#         281
  C:378EH         LINE#         282
  C:3795H         LINE#         283
  C:3798H         LINE#         287
  C:379EH         LINE#         288
  C:37A5H         LINE#         289
  C:37A8H         LINE#         290
  C:37AAH         LINE#         295
  C:37ADH         LINE#         301
  C:37B3H         LINE#         308
  C:37B9H         LINE#         309
  C:37BFH         LINE#         310
  C:37C5H         LINE#         311
  C:37CAH         LINE#         312
  C:37CDH         LINE#         324
  C:37D0H         LINE#         325
  C:37D3H         LINE#         326
  C:37D6H         LINE#         327
  C:37D9H         LINE#         328
  C:37DCH         LINE#         329
  C:37DEH         LINE#         337
  -------         ENDPROC       _?INITHARDWARE
  -------         PROC          _?OSINITHOOKBEGIN
  C:0004H         LINE#         353
  C:0004H         LINE#         355
  -------         ENDPROC       _?OSINITHOOKBEGIN
  -------         PROC          _?OSINITHOOKEND
  C:0005H         LINE#         371
  C:0005H         LINE#         373
  -------         ENDPROC       _?OSINITHOOKEND
  -------         PROC          _?OSTASKCREATEHOOK
  x:0000H         SYMBOL        ptcb
  C:5368H         LINE#         388
  C:5368H         LINE#         390
  C:536BH         LINE#         391
  -------         ENDPROC       _?OSTASKCREATEHOOK
  -------         PROC          _?OSTASKSWHOOK
  C:0006H         LINE#         426
  C:0006H         LINE#         428
  -------         ENDPROC       _?OSTASKSWHOOK
  -------         PROC          _?OSTCBINITHOOK
  x:0000H         SYMBOL        ptcb
  C:5371H         LINE#         472
BL51 BANKED LINKER/LOCATER V6.22.2.0                                                  02/22/2021  15:08:13  PAGE 97


  C:5371H         LINE#         474
  C:5374H         LINE#         475
  -------         ENDPROC       _?OSTCBINITHOOK
  -------         PROC          _?OSTIMETICKHOOK
  C:0007H         LINE#         491
  C:0007H         LINE#         493
  -------         ENDPROC       _?OSTIMETICKHOOK
  -------         PROC          _?OSTASKIDLEHOOK
  C:0008H         LINE#         509
  C:0008H         LINE#         512
  -------         ENDPROC       _?OSTASKIDLEHOOK
  -------         PROC          _DELAY_2US
  D:0006H         SYMBOL        fui_i
  C:007EH         LINE#         517
  C:007EH         LINE#         518
  C:007EH         LINE#         519
  C:0088H         LINE#         520
  -------         ENDPROC       _DELAY_2US
  -------         ENDMOD        OS_CPU_C

  -------         MODULE        OS_CPU_A
  C:0026H         SEGMENT       ?PR?OSSTARTHIGHRDY?OS_CPU_A
  C:4EF6H         SEGMENT       ?PR?OSCTXSW?OS_CPU_A
  C:5355H         SEGMENT       ?PR?OSINTCTXSW?OS_CPU_A
  I:0021H         SEGMENT       ?STACK
  C:4EF6H         PUBLIC        OSCTXSW
  C:5355H         PUBLIC        OSINTCTXSW
  C:0026H         PUBLIC        OSSTARTHIGHRDY
  D:00E0H         SYMBOL        ACC
  D:00F0H         SYMBOL        B
  D:0083H         SYMBOL        DPH
  D:0082H         SYMBOL        DPL
  B:00A8H.7       SYMBOL        EA
  C:0029H         SYMBOL        OSCTXSW_IN
  C:4F18H         SYMBOL        OSINTCTXSW_IN
  I:0022H         SYMBOL        OSSTACK
  I:0021H         SYMBOL        OSSTKSTART
  N:0000H         SYMBOL        OS_CPU_A
  D:00D0H         SYMBOL        PSW
  C:003FH         SYMBOL        RESTORE_STACK
  C:4F34H         SYMBOL        SAVE_STACK
  D:0081H         SYMBOL        SP
  D:008CH         SYMBOL        TH0
  D:008AH         SYMBOL        TL0
  B:0088H.4       SYMBOL        TR0
  C:0026H         LINE#         142
  C:0029H         LINE#         147
  C:002BH         LINE#         148
  C:002CH         LINE#         149
  C:002EH         LINE#         150
  C:002FH         LINE#         151
  C:0031H         LINE#         154
  C:0032H         LINE#         155
  C:0033H         LINE#         156
  C:0034H         LINE#         157
  C:0035H         LINE#         158
  C:0036H         LINE#         159
BL51 BANKED LINKER/LOCATER V6.22.2.0                                                  02/22/2021  15:08:13  PAGE 98


  C:0037H         LINE#         160
  C:0039H         LINE#         161
  C:003BH         LINE#         164
  C:003CH         LINE#         165
  C:003DH         LINE#         168
  C:003FH         LINE#         172
  C:0040H         LINE#         173
  C:0041H         LINE#         174
  C:0042H         LINE#         175
  C:0043H         LINE#         176
  C:0045H         LINE#         179
  C:0047H         LINE#         182
  C:0048H         LINE#         183
  C:0049H         LINE#         184
  C:004BH         LINE#         185
  C:004CH         LINE#         186
  C:004DH         LINE#         187
  C:004FH         LINE#         190
  C:0051H         LINE#         191
  C:0053H         LINE#         193
  C:0055H         LINE#         193
  C:0056H         LINE#         193
  C:0058H         LINE#         193
  C:0059H         LINE#         193
  C:005BH         LINE#         193
  C:005CH         LINE#         193
  C:005EH         LINE#         193
  C:005FH         LINE#         193
  C:0061H         LINE#         193
  C:0062H         LINE#         193
  C:0064H         LINE#         193
  C:0065H         LINE#         193
  C:0067H         LINE#         193
  C:0068H         LINE#         193
  C:006AH         LINE#         193
  C:006BH         LINE#         193
  C:006DH         LINE#         193
  C:006FH         LINE#         193
  C:0071H         LINE#         193
  C:0073H         LINE#         193
  C:0075H         LINE#         194
  C:0077H         LINE#         195
  C:4EF6H         LINE#         199
  C:4EF8H         LINE#         199
  C:4EFAH         LINE#         199
  C:4EFCH         LINE#         199
  C:4EFEH         LINE#         199
  C:4F00H         LINE#         199
  C:4F01H         LINE#         199
  C:4F03H         LINE#         199
  C:4F04H         LINE#         199
  C:4F06H         LINE#         199
  C:4F07H         LINE#         199
  C:4F09H         LINE#         199
  C:4F0AH         LINE#         199
  C:4F0CH         LINE#         199
  C:4F0DH         LINE#         199
BL51 BANKED LINKER/LOCATER V6.22.2.0                                                  02/22/2021  15:08:13  PAGE 99


  C:4F0FH         LINE#         199
  C:4F10H         LINE#         199
  C:4F12H         LINE#         199
  C:4F13H         LINE#         199
  C:4F15H         LINE#         199
  C:4F16H         LINE#         199
  C:4F18H         LINE#         204
  C:4F1AH         LINE#         205
  C:4F1BH         LINE#         206
  C:4F1DH         LINE#         207
  C:4F1EH         LINE#         210
  C:4F20H         LINE#         211
  C:4F21H         LINE#         212
  C:4F23H         LINE#         213
  C:4F24H         LINE#         214
  C:4F26H         LINE#         217
  C:4F27H         LINE#         218
  C:4F28H         LINE#         219
  C:4F29H         LINE#         220
  C:4F2AH         LINE#         221
  C:4F2BH         LINE#         222
  C:4F2CH         LINE#         223
  C:4F2EH         LINE#         224
  C:4F30H         LINE#         227
  C:4F31H         LINE#         228
  C:4F32H         LINE#         230
  C:4F34H         LINE#         233
  C:4F35H         LINE#         234
  C:4F36H         LINE#         235
  C:4F37H         LINE#         236
  C:4F38H         LINE#         237
  C:4F3AH         LINE#         240
  C:4F3BH         LINE#         241
  C:4F3DH         LINE#         242
  C:4F3EH         LINE#         243
  C:4F3FH         LINE#         244
  C:4F41H         LINE#         245
  C:4F42H         LINE#         248
  C:4F45H         LINE#         251
  C:4F47H         LINE#         252
  C:4F49H         LINE#         253
  C:4F4AH         LINE#         254
  C:4F4BH         LINE#         255
  C:4F4CH         LINE#         256
  C:4F4DH         LINE#         257
  C:4F4EH         LINE#         258
  C:4F4FH         LINE#         259
  C:4F50H         LINE#         260
  C:4F51H         LINE#         261
  C:4F52H         LINE#         262
  C:4F53H         LINE#         265
  C:4F55H         LINE#         266
  C:4F57H         LINE#         267
  C:4F58H         LINE#         268
  C:4F59H         LINE#         270
  C:5355H         LINE#         279
  C:5357H         LINE#         280
BL51 BANKED LINKER/LOCATER V6.22.2.0                                                  02/22/2021  15:08:13  PAGE 100


  C:5358H         LINE#         281
  C:535AH         LINE#         282
  C:535CH         LINE#         284
  -------         ENDMOD        OS_CPU_A

  -------         MODULE        ?C?FPADD
  C:10C5H         PUBLIC        ?C?FPADD
  C:10C1H         PUBLIC        ?C?FPSUB
  -------         ENDMOD        ?C?FPADD

  -------         MODULE        ?C?FPDIV
  C:11B9H         PUBLIC        ?C?FPDIV
  -------         ENDMOD        ?C?FPDIV

  -------         MODULE        ?C?FCAST
  C:1260H         PUBLIC        ?C?FCASTC
  C:125BH         PUBLIC        ?C?FCASTI
  C:1256H         PUBLIC        ?C?FCASTL
  -------         ENDMOD        ?C?FCAST

  -------         MODULE        ?C?CASTF
  C:1294H         PUBLIC        ?C?CASTF
  -------         ENDMOD        ?C?CASTF

  -------         MODULE        ?C?CLDPTR
  C:1315H         PUBLIC        ?C?CLDPTR
  -------         ENDMOD        ?C?CLDPTR

  -------         MODULE        ?C?CLDOPTR
  C:132EH         PUBLIC        ?C?CLDOPTR
  -------         ENDMOD        ?C?CLDOPTR

  -------         MODULE        ?C?CSTPTR
  C:135BH         PUBLIC        ?C?CSTPTR
  -------         ENDMOD        ?C?CSTPTR

  -------         MODULE        ?C?CSTOPTR
  C:136DH         PUBLIC        ?C?CSTOPTR
  -------         ENDMOD        ?C?CSTOPTR

  -------         MODULE        ?C?IMUL
  C:138FH         PUBLIC        ?C?IMUL
  -------         ENDMOD        ?C?IMUL

  -------         MODULE        ?C?UIDIV
  C:13A1H         PUBLIC        ?C?UIDIV
  -------         ENDMOD        ?C?UIDIV

  -------         MODULE        ?C?SIDIV
  C:13F6H         PUBLIC        ?C?SIDIV
  -------         ENDMOD        ?C?SIDIV

  -------         MODULE        ?C?IILDX
  C:142CH         PUBLIC        ?C?IILDX
  -------         ENDMOD        ?C?IILDX

  -------         MODULE        ?C?ILDIX
BL51 BANKED LINKER/LOCATER V6.22.2.0                                                  02/22/2021  15:08:13  PAGE 101


  C:1442H         PUBLIC        ?C?ILDIX
  -------         ENDMOD        ?C?ILDIX

  -------         MODULE        ?C?ILDOPTR
  C:1458H         PUBLIC        ?C?ILDOPTR
  -------         ENDMOD        ?C?ILDOPTR

  -------         MODULE        ?C?ISTOPTR
  C:1490H         PUBLIC        ?C?ISTOPTR
  -------         ENDMOD        ?C?ISTOPTR

  -------         MODULE        ?C?LMUL
  C:14BDH         PUBLIC        ?C?LMUL
  -------         ENDMOD        ?C?LMUL

  -------         MODULE        ?C?ULDIV
  C:1548H         PUBLIC        ?C?ULDIV
  -------         ENDMOD        ?C?ULDIV

  -------         MODULE        ?C?LNEG
  C:15DAH         PUBLIC        ?C?LNEG
  -------         ENDMOD        ?C?LNEG

  -------         MODULE        ?C?ULCMP
  C:15E8H         PUBLIC        ?C?ULCMP
  -------         ENDMOD        ?C?ULCMP

  -------         MODULE        ?C?LLDOPTR
  C:15F9H         PUBLIC        ?C?LLDOPTR
  -------         ENDMOD        ?C?LLDOPTR

  -------         MODULE        ?C?LSTOPTR
  C:1629H         PUBLIC        ?C?LSTOPTR
  -------         ENDMOD        ?C?LSTOPTR

  -------         MODULE        ?C?LSTXDATA
  C:164DH         PUBLIC        ?C?LSTXDATA
  -------         ENDMOD        ?C?LSTXDATA

  -------         MODULE        ?C?LSTKXDATA
  C:1659H         PUBLIC        ?C?LSTKXDATA
  -------         ENDMOD        ?C?LSTKXDATA

  -------         MODULE        ?C?LSTKOPTR
  C:168AH         PUBLIC        ?C?LSTKOPTR
  -------         ENDMOD        ?C?LSTKOPTR

  -------         MODULE        ?C?PSTPTR
  C:16AEH         PUBLIC        ?C?PSTPTR
  -------         ENDMOD        ?C?PSTPTR

  -------         MODULE        ?C?PLDOPTR
  C:16FDH         PUBLIC        ?C?PLDOPTR
  -------         ENDMOD        ?C?PLDOPTR

  -------         MODULE        ?C?PSTOPTR
  C:172DH         PUBLIC        ?C?PSTOPTR
BL51 BANKED LINKER/LOCATER V6.22.2.0                                                  02/22/2021  15:08:13  PAGE 102


  -------         ENDMOD        ?C?PSTOPTR

  -------         MODULE        ?C_XBP
  D:0008H         PUBLIC        ?C_XBP
  -------         ENDMOD        ?C_XBP

  -------         MODULE        ?C?ADDXBP
  C:1786H         PUBLIC        ?C?ADDXBP
  -------         ENDMOD        ?C?ADDXBP

  -------         MODULE        ?C?XBPOFF
  C:17AAH         PUBLIC        ?C?XBPOFF
  -------         ENDMOD        ?C?XBPOFF

  -------         MODULE        ?C?LIMUL
  C:17B7H         PUBLIC        ?C?LIMUL
  -------         ENDMOD        ?C?LIMUL

  -------         MODULE        ?C?LLDIDATA
  C:17E4H         PUBLIC        ?C?LLDIDATA
  -------         ENDMOD        ?C?LLDIDATA

  -------         MODULE        ?C?LLDXDATA
  C:17F0H         PUBLIC        ?C?LLDXDATA
  -------         ENDMOD        ?C?LLDXDATA

  -------         MODULE        ?C?LLDPDATA
  C:17FCH         PUBLIC        ?C?LLDPDATA
  -------         ENDMOD        ?C?LLDPDATA

  -------         MODULE        ?C?LLDCODE
  C:1808H         PUBLIC        ?C?LLDCODE
  -------         ENDMOD        ?C?LLDCODE

  -------         MODULE        ?C?LSTIDATA
  C:1818H         PUBLIC        ?C?LSTIDATA
  -------         ENDMOD        ?C?LSTIDATA

  -------         MODULE        ?C?LSTPDATA
  C:1824H         PUBLIC        ?C?LSTPDATA
  -------         ENDMOD        ?C?LSTPDATA

  -------         MODULE        ?C?LSTKIDATA
  C:1830H         PUBLIC        ?C?LSTKIDATA
  -------         ENDMOD        ?C?LSTKIDATA

  -------         MODULE        ?C?LSTKPDATA
  C:1849H         PUBLIC        ?C?LSTKPDATA
  -------         ENDMOD        ?C?LSTKPDATA

  -------         MODULE        ?C?PLDIDATA
  C:1862H         PUBLIC        ?C?PLDIDATA
  -------         ENDMOD        ?C?PLDIDATA

  -------         MODULE        ?C?PSTIDATA
  C:186BH         PUBLIC        ?C?PSTIDATA
  -------         ENDMOD        ?C?PSTIDATA
BL51 BANKED LINKER/LOCATER V6.22.2.0                                                  02/22/2021  15:08:13  PAGE 103



  -------         MODULE        ?C?PLDXDATA
  C:1874H         PUBLIC        ?C?PLDXDATA
  -------         ENDMOD        ?C?PLDXDATA

  -------         MODULE        ?C?PSTXDATA
  C:187DH         PUBLIC        ?C?PSTXDATA
  -------         ENDMOD        ?C?PSTXDATA

  -------         MODULE        ?C?PLDPDATA
  C:1886H         PUBLIC        ?C?PLDPDATA
  -------         ENDMOD        ?C?PLDPDATA

  -------         MODULE        ?C?PSTPDATA
  C:188FH         PUBLIC        ?C?PSTPDATA
  -------         ENDMOD        ?C?PSTPDATA

  -------         MODULE        ?C?PLDCODE
  C:1898H         PUBLIC        ?C?PLDCODE
  -------         ENDMOD        ?C?PLDCODE

*** WARNING L16: UNCALLED SEGMENT, IGNORED FOR OVERLAY PROCESS
    SEGMENT: ?PR?_?OSTASKRESUME?OS_TASK

*** WARNING L16: UNCALLED SEGMENT, IGNORED FOR OVERLAY PROCESS
    SEGMENT: ?PR?_?OSTASKSUSPEND?OS_TASK

*** WARNING L16: UNCALLED SEGMENT, IGNORED FOR OVERLAY PROCESS
    SEGMENT: ?PR?_?OSTIMEDLYHMSM?OS_TIME

Program Size: data=84.7 xdata=938 code=21358
LINK/LOCATE RUN COMPLETE.  3 WARNING(S),  0 ERROR(S)
